
EM021_Wildfire_Nios2.elf:     file format elf32-littlenios2
EM021_Wildfire_Nios2.elf
architecture: nios2:r1, flags 0x00000112:
EXEC_P, HAS_SYMS, D_PAGED
start address 0x00020224

Program Header:
    LOAD off    0x00001000 vaddr 0x00020000 paddr 0x00020000 align 2**12
         filesz 0x00000020 memsz 0x00000020 flags r-x
    LOAD off    0x00001020 vaddr 0x00020020 paddr 0x00020020 align 2**12
         filesz 0x0001907c memsz 0x0001907c flags r-x
    LOAD off    0x0001a09c vaddr 0x0003909c paddr 0x0003acc4 align 2**12
         filesz 0x00001c28 memsz 0x00001c28 flags rw-
    LOAD off    0x0001c8ec vaddr 0x0003c8ec paddr 0x0003c8ec align 2**12
         filesz 0x00000000 memsz 0x00000244 flags rw-

Sections:
Idx Name          Size      VMA       LMA       File off  Algn
  0 .entry        00000020  00020000  00020000  00001000  2**5
                  CONTENTS, ALLOC, LOAD, READONLY, CODE
  1 .exceptions   00000204  00020020  00020020  00001020  2**2
                  CONTENTS, ALLOC, LOAD, READONLY, CODE
  2 .text         00017f5c  00020224  00020224  00001224  2**2
                  CONTENTS, ALLOC, LOAD, READONLY, CODE
  3 .rodata       00000f1c  00038180  00038180  00019180  2**2
                  CONTENTS, ALLOC, LOAD, READONLY, DATA
  4 .rwdata       00001c28  0003909c  0003acc4  0001a09c  2**2
                  CONTENTS, ALLOC, LOAD, DATA, SMALL_DATA
  5 .bss          00000244  0003c8ec  0003c8ec  0001c8ec  2**2
                  ALLOC, SMALL_DATA
  6 .nios_system_shared_memory 00000000  00002000  00002000  0001bcc4  2**0
                  CONTENTS
  7 .nios_system_onchip_memory2 00000000  0003cb30  0003cb30  0001bcc4  2**0
                  CONTENTS
  8 .comment      0000002d  00000000  00000000  0001bcc4  2**0
                  CONTENTS, READONLY
  9 .debug_aranges 00001448  00000000  00000000  0001bcf8  2**3
                  CONTENTS, READONLY, DEBUGGING, OCTETS
 10 .debug_info   00035e26  00000000  00000000  0001d140  2**0
                  CONTENTS, READONLY, DEBUGGING, OCTETS
 11 .debug_abbrev 0000dd88  00000000  00000000  00052f66  2**0
                  CONTENTS, READONLY, DEBUGGING, OCTETS
 12 .debug_line   0001d33d  00000000  00000000  00060cee  2**0
                  CONTENTS, READONLY, DEBUGGING, OCTETS
 13 .debug_frame  00003618  00000000  00000000  0007e02c  2**2
                  CONTENTS, READONLY, DEBUGGING, OCTETS
 14 .debug_str    00005388  00000000  00000000  00081644  2**0
                  CONTENTS, READONLY, DEBUGGING, OCTETS
 15 .debug_loc    0002448a  00000000  00000000  000869cc  2**0
                  CONTENTS, READONLY, DEBUGGING, OCTETS
 16 .debug_alt_sim_info 00000040  00000000  00000000  000aae58  2**2
                  CONTENTS, READONLY, DEBUGGING, OCTETS
 17 .debug_ranges 00003108  00000000  00000000  000aae98  2**3
                  CONTENTS, READONLY, DEBUGGING, OCTETS
 18 .thread_model 00000003  00000000  00000000  000b25bc  2**0
                  CONTENTS, READONLY
 19 .cpu          00000016  00000000  00000000  000b25bf  2**0
                  CONTENTS, READONLY
 20 .qsys         00000001  00000000  00000000  000b25d5  2**0
                  CONTENTS, READONLY
 21 .simulation_enabled 00000001  00000000  00000000  000b25d6  2**0
                  CONTENTS, READONLY
 22 .sysid_hash   00000004  00000000  00000000  000b25d7  2**0
                  CONTENTS, READONLY
 23 .sysid_base   00000004  00000000  00000000  000b25db  2**0
                  CONTENTS, READONLY
 24 .sysid_time   00000004  00000000  00000000  000b25df  2**0
                  CONTENTS, READONLY
 25 .stderr_dev   00000015  00000000  00000000  000b25e3  2**0
                  CONTENTS, READONLY
 26 .stdin_dev    00000015  00000000  00000000  000b25f8  2**0
                  CONTENTS, READONLY
 27 .stdout_dev   00000015  00000000  00000000  000b260d  2**0
                  CONTENTS, READONLY
 28 .sopc_system_name 00000008  00000000  00000000  000b2622  2**0
                  CONTENTS, READONLY
 29 .quartus_project_dir 00000024  00000000  00000000  000b262a  2**0
                  CONTENTS, READONLY
 30 .jdi          0000fb5a  00000000  00000000  000b264e  2**0
                  CONTENTS, READONLY
SYMBOL TABLE:
00020000 l    d  .entry	00000000 .entry
00020020 l    d  .exceptions	00000000 .exceptions
00020224 l    d  .text	00000000 .text
00038180 l    d  .rodata	00000000 .rodata
0003909c l    d  .rwdata	00000000 .rwdata
0003c8ec l    d  .bss	00000000 .bss
00002000 l    d  .nios_system_shared_memory	00000000 .nios_system_shared_memory
0003cb30 l    d  .nios_system_onchip_memory2	00000000 .nios_system_onchip_memory2
00000000 l    d  .comment	00000000 .comment
00000000 l    d  .debug_aranges	00000000 .debug_aranges
00000000 l    d  .debug_info	00000000 .debug_info
00000000 l    d  .debug_abbrev	00000000 .debug_abbrev
00000000 l    d  .debug_line	00000000 .debug_line
00000000 l    d  .debug_frame	00000000 .debug_frame
00000000 l    d  .debug_str	00000000 .debug_str
00000000 l    d  .debug_loc	00000000 .debug_loc
00000000 l    d  .debug_alt_sim_info	00000000 .debug_alt_sim_info
00000000 l    d  .debug_ranges	00000000 .debug_ranges
00000000 l    df *ABS*	00000000 d:/HW/InnovateFPGA/Module5_Sample_HW/software/EM021_Wildfire_Nios2_bsp//obj/HAL/src/crt0.o
0002025c l       .text	00000000 alt_after_alt_main
00000000 l    df *ABS*	00000000 alt_irq_handler.c
00000000 l    df *ABS*	00000000 alt_instruction_exception_entry.c
00000000 l    df *ABS*	00000000 AD5270.c
00000000 l    df *ABS*	00000000 AD7790.c
00000000 l    df *ABS*	00000000 I2C_core.c
00000000 l    df *ABS*	00000000 light_sensor.c
0003ac70 l     O .rwdata	00000004 Light_I2C_Controller_Base
00000000 l    df *ABS*	00000000 main.c
0003c93c l     O .bss	00000070 thresh
0003c9ac l     O .bss	00000020 custom_thresh
0003ac7c l     O .rwdata	00000001 g_clear_OOR_flag
0003c8fc l     O .bss	00000004 out_of_range.0
00000000 l    df *ABS*	00000000 mpu9250.c
00000000 l    df *ABS*	00000000 rh_temp.c
00000000 l    df *ABS*	00000000 wf_pow.c
00000000 l    df *ABS*	00000000 ef_pow.c
00000000 l    df *ABS*	00000000 ef_sqrt.c
00000000 l    df *ABS*	00000000 s_lib_ver.c
00000000 l    df *ABS*	00000000 sf_rint.c
0003ac84 l     O .rwdata	00000008 TWO23
00000000 l    df *ABS*	00000000 sf_scalbn.c
00000000 l    df *ABS*	00000000 lib2-divmod.c
00000000 l    df *ABS*	00000000 lib2-mul.c
00000000 l    df *ABS*	00000000 addsf3.c
00000000 l    df *ABS*	00000000 divsf3.c
00000000 l    df *ABS*	00000000 eqsf2.c
00000000 l    df *ABS*	00000000 gesf2.c
00000000 l    df *ABS*	00000000 lesf2.c
00000000 l    df *ABS*	00000000 mulsf3.c
00000000 l    df *ABS*	00000000 subsf3.c
00000000 l    df *ABS*	00000000 unordsf2.c
00000000 l    df *ABS*	00000000 fixsfsi.c
00000000 l    df *ABS*	00000000 floatsisf.c
00000000 l    df *ABS*	00000000 floatunsisf.c
00000000 l    df *ABS*	00000000 adddf3.c
00000000 l    df *ABS*	00000000 divdf3.c
00000000 l    df *ABS*	00000000 gedf2.c
00000000 l    df *ABS*	00000000 ledf2.c
00000000 l    df *ABS*	00000000 muldf3.c
00000000 l    df *ABS*	00000000 subdf3.c
00000000 l    df *ABS*	00000000 floatsidf.c
00000000 l    df *ABS*	00000000 extendsfdf2.c
00000000 l    df *ABS*	00000000 truncdfsf2.c
00000000 l    df *ABS*	00000000 libgcc2.c
00000000 l    df *ABS*	00000000 libgcc2.c
00000000 l    df *ABS*	00000000 errno.c
00000000 l    df *ABS*	00000000 impure.c
0003909c l     O .rwdata	00000424 impure_data
00000000 l    df *ABS*	00000000 printf.c
00000000 l    df *ABS*	00000000 putchar.c
00000000 l    df *ABS*	00000000 puts.c
00000000 l    df *ABS*	00000000 strlen.c
00000000 l    df *ABS*	00000000 vfprintf.c
0002cc10 l     F .text	000000c0 __sbprintf
00038b74 l     O .rodata	00000010 blanks.1
00038b64 l     O .rodata	00000010 zeroes.0
00000000 l    df *ABS*	00000000 wsetup.c
00000000 l    df *ABS*	00000000 dtoa.c
0002ce34 l     F .text	00000220 quorem
00000000 l    df *ABS*	00000000 fflush.c
00000000 l    df *ABS*	00000000 findfp.c
0002eaa8 l     F .text	00000008 __fp_lock
0002eabc l     F .text	00000008 __fp_unlock
0002eac4 l     F .text	00000168 __sinit.part.0
00000000 l    df *ABS*	00000000 mallocr.c
00000000 l    df *ABS*	00000000 fvwrite.c
00000000 l    df *ABS*	00000000 fwalk.c
00000000 l    df *ABS*	00000000 localeconv.c
00000000 l    df *ABS*	00000000 makebuf.c
00000000 l    df *ABS*	00000000 mallocr.c
00000000 l    df *ABS*	00000000 memchr.c
00000000 l    df *ABS*	00000000 memcpy.c
00000000 l    df *ABS*	00000000 memmove.c
00000000 l    df *ABS*	00000000 memset.c
00000000 l    df *ABS*	00000000 mprec.c
00038c28 l     O .rodata	0000000c p05.0
00000000 l    df *ABS*	00000000 putc.c
00000000 l    df *ABS*	00000000 mallocr.c
00000000 l    df *ABS*	00000000 sbrkr.c
00000000 l    df *ABS*	00000000 stdio.c
00000000 l    df *ABS*	00000000 vfprintf.c
00032140 l     F .text	000000f4 __sprint_r.part.0
000335ac l     F .text	000000c0 __sbprintf
00038d5c l     O .rodata	00000010 blanks.1
00038d4c l     O .rodata	00000010 zeroes.0
00000000 l    df *ABS*	00000000 wbuf.c
00000000 l    df *ABS*	00000000 writer.c
00000000 l    df *ABS*	00000000 closer.c
00000000 l    df *ABS*	00000000 assert.c
00000000 l    df *ABS*	00000000 mallocr.c
00000000 l    df *ABS*	00000000 fclose.c
000339c4 l     F .text	000000c0 _fclose_r.part.0
00000000 l    df *ABS*	00000000 fiprintf.c
00000000 l    df *ABS*	00000000 fputwc.c
00000000 l    df *ABS*	00000000 fstatr.c
00000000 l    df *ABS*	00000000 int_errno.c
00000000 l    df *ABS*	00000000 isattyr.c
00000000 l    df *ABS*	00000000 locale.c
00000000 l    df *ABS*	00000000 lseekr.c
00000000 l    df *ABS*	00000000 mbtowc_r.c
00000000 l    df *ABS*	00000000 readr.c
00000000 l    df *ABS*	00000000 strcmp.c
00000000 l    df *ABS*	00000000 vfiprintfr_1.c
00000000 l    df *ABS*	00000000 wcrtomb.c
00000000 l    df *ABS*	00000000 wctomb_r.c
00000000 l    df *ABS*	00000000 abort.c
00000000 l    df *ABS*	00000000 ctype_.c
00000000 l    df *ABS*	00000000 signal.c
00000000 l    df *ABS*	00000000 signalr.c
00000000 l    df *ABS*	00000000 libgcc2.c
00000000 l    df *ABS*	00000000 libgcc2.c
00000000 l    df *ABS*	00000000 eqdf2.c
00000000 l    df *ABS*	00000000 unorddf2.c
00000000 l    df *ABS*	00000000 fixdfsi.c
00000000 l    df *ABS*	00000000 floatunsidf.c
00000000 l    df *ABS*	00000000 alt_close.c
0003559c l     F .text	0000003c alt_get_errno
00000000 l    df *ABS*	00000000 alt_dev.c
000356b4 l     F .text	0000002c alt_dev_null_write
00000000 l    df *ABS*	00000000 alt_errno.c
00000000 l    df *ABS*	00000000 alt_exit.c
00000000 l    df *ABS*	00000000 alt_fstat.c
00035718 l     F .text	0000003c alt_get_errno
00000000 l    df *ABS*	00000000 alt_getpid.c
00000000 l    df *ABS*	00000000 alt_isatty.c
00035830 l     F .text	0000003c alt_get_errno
00000000 l    df *ABS*	00000000 alt_kill.c
0003591c l     F .text	0000003c alt_get_errno
00000000 l    df *ABS*	00000000 alt_load.c
00035a84 l     F .text	00000068 alt_load_section
00000000 l    df *ABS*	00000000 alt_lseek.c
00035b70 l     F .text	0000003c alt_get_errno
00000000 l    df *ABS*	00000000 alt_main.c
00000000 l    df *ABS*	00000000 alt_malloc_lock.c
00000000 l    df *ABS*	00000000 alt_read.c
00035d50 l     F .text	0000003c alt_get_errno
00000000 l    df *ABS*	00000000 alt_release_fd.c
00000000 l    df *ABS*	00000000 alt_sbrk.c
0003acb4 l     O .rwdata	00000004 heap_end
00000000 l    df *ABS*	00000000 alt_tick.c
00000000 l    df *ABS*	00000000 alt_usleep.c
00000000 l    df *ABS*	00000000 alt_write.c
00036198 l     F .text	0000003c alt_get_errno
00000000 l    df *ABS*	00000000 alt_sys_init.c
000362d8 l     F .text	00000034 alt_dev_reg
00039bdc l     O .rwdata	00001060 nios_system_jtag_uart
0003ac3c l     O .rwdata	0000002c nios_system_adc_0
00000000 l    df *ABS*	00000000 altera_avalon_jtag_uart_fd.c
00000000 l    df *ABS*	00000000 altera_avalon_jtag_uart_init.c
000365e0 l     F .text	0000020c altera_avalon_jtag_uart_irq
000367ec l     F .text	000000a0 altera_avalon_jtag_uart_timeout
00000000 l    df *ABS*	00000000 altera_avalon_jtag_uart_ioctl.c
00000000 l    df *ABS*	00000000 altera_avalon_jtag_uart_read.c
00000000 l    df *ABS*	00000000 altera_avalon_jtag_uart_write.c
00000000 l    df *ABS*	00000000 altera_avalon_spi.c
00000000 l    df *ABS*	00000000 altera_avalon_timer_sc.c
0003702c l     F .text	0000007c alt_avalon_timer_sc_irq
00000000 l    df *ABS*	00000000 alt_alarm_start.c
00000000 l    df *ABS*	00000000 alt_busy_sleep.c
00000000 l    df *ABS*	00000000 alt_dcache_flush_all.c
00000000 l    df *ABS*	00000000 alt_dev_llist_insert.c
000373d8 l     F .text	0000003c alt_get_errno
00000000 l    df *ABS*	00000000 alt_do_ctors.c
00000000 l    df *ABS*	00000000 alt_do_dtors.c
00000000 l    df *ABS*	00000000 alt_icache_flush_all.c
00000000 l    df *ABS*	00000000 alt_iic.c
00000000 l    df *ABS*	00000000 alt_iic_isr_register.c
00000000 l    df *ABS*	00000000 alt_io_redirect.c
0003783c l     F .text	000000d4 alt_open_fd
00000000 l    df *ABS*	00000000 alt_irq_vars.c
00000000 l    df *ABS*	00000000 alt_open.c
0003798c l     F .text	0000003c alt_get_errno
000379c8 l     F .text	000000dc alt_file_locked
00000000 l    df *ABS*	00000000 altera_nios2_gen2_irq.c
00000000 l    df *ABS*	00000000 alt_find_dev.c
00000000 l    df *ABS*	00000000 alt_find_file.c
00000000 l    df *ABS*	00000000 alt_get_fd.c
00000000 l    df *ABS*	00000000 atexit.c
00000000 l    df *ABS*	00000000 exit.c
00000000 l    df *ABS*	00000000 memcmp.c
00000000 l    df *ABS*	00000000 __atexit.c
00000000 l    df *ABS*	00000000 __call_atexit.c
0003c938 g     O .bss	00000004 alt_instruction_exception_handler
000236cc g     F .text	00000054 check_adc0_threshold
0002a964 g     F .text	00000018 putchar
0003174c g     F .text	00000070 _mprec_log10
00031838 g     F .text	00000060 __any_on
00033e1c g     F .text	00000058 _isatty_r
00038c34 g     O .rodata	00000028 __mprec_tinytens
00035c8c g     F .text	0000007c alt_main
0002a97c g     F .text	000000cc _puts_r
0003ca30 g     O .bss	00000100 alt_irq
00033f68 g     F .text	00000064 _lseek_r
00020a98 g     F .text	00000068 ACK_check
0003ac68 g     O .rwdata	00000004 pio
0003acc4 g       *ABS*	00000000 __flash_rwdata_start
00020a0c g     F .text	0000008c ACK_single_check
000353b8 g     F .text	00000080 .hidden __eqdf2
0003cb30 g       *ABS*	00000000 __alt_heap_start
00002000 g       *ABS*	00000000 __alt_mem_nios_system_shared_memory
00034770 g     F .text	00000060 _kill_r
00021d70 g     F .text	00000080 I2C_Write_Light
0002a924 g     F .text	00000038 printf
0003413c g     F .text	0000006c _wcrtomb_r
00023720 g     F .text	00000054 check_adc1_threshold
000342e0 g     F .text	00000098 _signal_r
000320dc g     F .text	0000005c __sseek
0002ee0c g     F .text	00000010 __sinit
0003366c g     F .text	00000148 __swbuf_r
0002428c g     F .text	00000130 MPU9250_initialize
00033e74 g     F .text	00000074 _setlocale_r
0002ec2c g     F .text	00000078 __sfmoreglue
0003c9e4 g     O .bss	0000000c accelerometer_data
00023394 g     F .text	00000054 Ad7790INIT
00035d2c g     F .text	00000024 __malloc_unlock
00023538 g     F .text	00000194 set_custom_thresh
0003c8f0 g     O .bss	00000002 ui16RdacWord
00026fe0 g     F .text	000003f4 .hidden __divsf3
00023fa8 g     F .text	0000005c ReadRegs
000234e8 g     F .text	00000050 setResistorValue
00021c18 g     F .text	0000004c Light_SetThreshHigh
0003048c g     F .text	0000012c memmove
00020b00 g     F .text	00000250 OC_I2C_Write
0002edf8 g     F .text	00000014 _cleanup
0002583c g     F .text	00000298 powf
000306a8 g     F .text	000000a4 _Balloc
00027e90 g     F .text	00000070 .hidden __fixsfsi
00029340 g     F .text	000000e8 .hidden __gtdf2
00037c04 g     F .text	00000024 altera_nios2_gen2_irq_init
0002a8e8 g     F .text	0000000c __errno
00025014 g     F .text	000000a4 RH_Temp_Init
00020000 g     F .entry	0000000c __reset
0002f874 g     F .text	00000008 __localeconv_l
00020020 g       *ABS*	00000000 __flash_exceptions_start
00033dbc g     F .text	00000060 _fstat_r
0003c918 g     O .bss	00000004 errno
00032054 g     F .text	00000008 __seofread
00020000 g       *ABS*	00000000 __alt_mem_nios_system_onchip_memory2
0003c924 g     O .bss	00000004 alt_argv
00042c68 g       *ABS*	00000000 _gp
000218f8 g     F .text	000000f8 Light_Get_ADCData0
00036168 g     F .text	00000030 usleep
000279b0 g     F .text	00000494 .hidden __subsf3
00035810 g     F .text	00000020 getpid
0003ac7a g     O .rwdata	00000002 ui16sensitivity
00024884 g     F .text	000000d4 read_temp
00039a5c g     O .rwdata	00000180 alt_fd_list
00022a14 g     F .text	00000980 Sensor_Report
00022738 g     F .text	000000a4 check_temp_hm_threshold
0002a95c g     F .text	00000008 _putchar_r
00025158 g     F .text	0000003c RH_Temp_Sensor_Init
00037c28 g     F .text	00000090 alt_find_dev
0003038c g     F .text	00000100 memcpy
00020824 g     F .text	00000154 oc_i2c_init_ex
0002eab0 g     F .text	0000000c _cleanup_r
0002a570 g     F .text	000000b8 .hidden __floatsidf
00037910 g     F .text	0000007c alt_io_redirect
00029428 g     F .text	000000e8 .hidden __ltdf2
00038180 g       *ABS*	00000000 __DTOR_END__
0002aa48 g     F .text	00000010 puts
00037e78 g     F .text	00000098 alt_exception_cause_generated_bad_addr
00021888 g     F .text	00000070 Light_PowerSwitch
000316a8 g     F .text	000000a4 __ratio
00033590 g     F .text	0000001c __vfiprintf_internal
000369e8 g     F .text	00000220 altera_avalon_jtag_uart_read
0002a8f4 g     F .text	00000030 _printf_r
00026a8c g     F .text	00000064 .hidden __udivsi3
0003586c g     F .text	000000b0 isatty
00034378 g     F .text	000000c4 _raise_r
00033888 g     F .text	00000064 __assert_func
00038c84 g     O .rodata	000000c8 __mprec_tens
000274fc g     F .text	000000b4 .hidden __lesf2
00020610 g     F .text	00000114 writeAd7790
0003c914 g     O .bss	00000004 __malloc_top_pad
000244b0 g     F .text	00000114 calib_mag
000347d0 g     F .text	00000004 _getpid_r
0002f87c g     F .text	0000000c _localeconv_r
0003c8f8 g     O .bss	00000004 fConcentration
00030b18 g     F .text	000000b0 __i2b
0002f26c g     F .text	000004c8 __sfvwrite_r
0003443c g     F .text	000000bc __sigtramp_r
00031fa8 g     F .text	00000058 _sbrk_r
0003401c g     F .text	00000064 _read_r
0003acac g     O .rwdata	00000004 alt_max_fd
00033a84 g     F .text	00000070 _fclose_r
0002ea24 g     F .text	00000084 fflush
0003c910 g     O .bss	00000004 __malloc_max_sbrked_mem
00021e64 g     F .text	00000074 I2C_Read_Light
0002a628 g     F .text	000000fc .hidden __extendsfdf2
0003c908 g     O .bss	00000004 temperature
00028120 g     F .text	000008f0 .hidden __adddf3
000273d4 g     F .text	00000070 .hidden __nesf2
0003143c g     F .text	00000108 __b2d
00034df4 g     F .text	000005c4 .hidden __umoddi3
00035bac g     F .text	000000e0 lseek
0003ac80 g     O .rwdata	00000004 __fdlib_version
0003ac8c g     O .rwdata	00000004 _global_impure_ptr
00031a44 g     F .text	00000564 _realloc_r
0003cb30 g       *ABS*	00000000 __bss_end
00037754 g     F .text	000000e8 alt_iic_isr_register
00036060 g     F .text	00000108 alt_tick
00025638 g     F .text	000000f8 th_dump_chip_info
000347d4 g     F .text	00000620 .hidden __udivdi3
00033d20 g     F .text	00000024 _fputwc_r
00038c5c g     O .rodata	00000028 __mprec_bigtens
000308cc g     F .text	00000138 __s2b
0003426c g     F .text	00000018 abort
0003550c g     F .text	00000090 .hidden __floatunsidf
0003115c g     F .text	00000058 __mcmp
0002ee2c g     F .text	00000014 __fp_lock_all
00037708 g     F .text	0000004c alt_ic_irq_enabled
000254c4 g     F .text	00000138 th_Read_Measure_Data
000211fc g     F .text	00000270 OC_I2CL_Write
00035fbc g     F .text	000000a4 alt_alarm_stop
00023774 g     F .text	00000054 check_adc2_threshold
0003c934 g     O .bss	00000004 alt_irq_active
00021cb8 g     F .text	00000064 Light_GetInterrupt
00020d50 g     F .text	00000064 ACK_judge_for_read
000200fc g     F .exceptions	000000c8 alt_irq_handler
00039a34 g     O .rwdata	00000028 alt_dev_null
00020724 g     F .text	00000054 Write32_Data
000226c4 g     F .text	00000074 check_light_threshold
000223a8 g     F .text	0000031c set_thresh
00021824 g     F .text	00000064 Light_GetTiming
000373b8 g     F .text	00000020 alt_dcache_flush_all
00030a04 g     F .text	00000064 __hi0bits
0003548c g     F .text	00000080 .hidden __fixdfsi
00024ea8 g     F .text	000000cc getMotion9
0003acc4 g       *ABS*	00000000 __ram_rwdata_end
0003aca4 g     O .rwdata	00000008 alt_dev_list
000361d4 g     F .text	00000104 write
00031898 g     F .text	000000cc _putc_r
00027444 g     F .text	000000b8 .hidden __gtsf2
0003c9cc g     O .bss	0000000c calib_data
0003909c g       *ABS*	00000000 __ram_rodata_end
00035754 g     F .text	000000bc fstat
00035958 g     F .text	0000012c kill
00029428 g     F .text	000000e8 .hidden __ledf2
00030e8c g     F .text	00000148 __pow5mult
0003224c g     F .text	00001344 ___vfiprintf_internal_r
00026af0 g     F .text	0000005c .hidden __umodsi3
0003cb30 g       *ABS*	00000000 end
00024958 g     F .text	00000118 read_mag
00036520 g     F .text	000000c0 altera_avalon_jtag_uart_init
000201c4 g     F .exceptions	00000060 alt_instruction_exception_entry
00038180 g       *ABS*	00000000 __CTOR_LIST__
00040000 g       *ABS*	00000000 __alt_stack_pointer
000370a8 g     F .text	00000084 alt_avalon_timer_sc_init
0002a894 g     F .text	00000054 .hidden __clzsi2
00036c08 g     F .text	00000228 altera_avalon_jtag_uart_write
0002ee1c g     F .text	00000004 __sfp_lock_acquire
000302bc g     F .text	000000d0 memchr
0002aaf0 g     F .text	00002104 ___vfprintf_internal_r
0002ef70 g     F .text	000002fc _free_r
00038ec0 g     O .rodata	00000180 _ctype_b
00033ee8 g     F .text	0000000c __locale_mb_cur_max
00038060 g     F .text	00000120 __call_exitprocs
000250b8 g     F .text	000000a0 RH_Temp_Read_Device_ID
0003ac94 g     O .rwdata	00000004 __malloc_sbrk_base
00020224 g     F .text	0000003c _start
0003c92c g     O .bss	00000004 _alt_tick_rate
0002341c g     F .text	000000cc calculateFeedbackResistor
00030fd4 g     F .text	00000188 __lshift
00036e30 g     F .text	000001fc alt_avalon_spi_command
0003c930 g     O .bss	00000004 _alt_nticks
000345b4 g     F .text	000000a0 signal
00035d8c g     F .text	00000108 read
00023f40 g     F .text	00000068 ReadReg
00036348 g     F .text	00000074 alt_sys_init
00027f00 g     F .text	00000124 .hidden __floatsisf
00037fd0 g     F .text	00000090 __register_exitproc
00021df0 g     F .text	00000074 I2C_Write_Light16
0003c9f0 g     O .bss	0000000c gyroscope_data
00030bc8 g     F .text	000002c4 __multiply
0003c9d8 g     O .bss	0000000c magnetometer_ASA
0003688c g     F .text	00000068 altera_avalon_jtag_uart_close
000237c8 g     F .text	0000006c check_co_threshold
00026b4c g     F .text	00000028 .hidden __mulsi3
0003909c g       *ABS*	00000000 __ram_rwdata_start
0003ac74 g     O .rwdata	00000004 adc
00038180 g       *ABS*	00000000 __ram_rodata_start
0003ca08 g     O .bss	00000028 __malloc_current_mallinfo
000273d4 g     F .text	00000070 .hidden __eqsf2
00031544 g     F .text	00000164 __d2b
00025730 g     F .text	0000007c th_write_register
00024004 g     F .text	00000140 set_acc_scale
0003c8f2 g     O .bss	00000002 ui16Adcdata
000363bc g     F .text	00000060 altera_avalon_jtag_uart_read_fd
00037dc0 g     F .text	000000b8 alt_get_fd
00037260 g     F .text	00000158 alt_busy_sleep
000203b8 g     F .text	0000010c readAd5270
000227dc g     F .text	00000238 check_temp_ax9_threshold
00033830 g     F .text	00000058 _close_r
00021760 g     F .text	00000060 Light_Init
0003c9fc g     O .bss	0000000c magnetometer_data
00037f58 g     F .text	00000078 memcmp
0003647c g     F .text	00000050 altera_avalon_jtag_uart_close_fd
0003cb30 g       *ABS*	00000000 __alt_stack_base
000364cc g     F .text	00000054 altera_avalon_jtag_uart_ioctl_fd
0002ccd0 g     F .text	00000164 __swsetup_r
0003c8ec g     O .bss	00000004 fResistorValue
000207cc g     F .text	00000058 oc_i2c_init
000217c0 g     F .text	00000064 Light_GetID
00028a10 g     F .text	00000930 .hidden __divdf3
0002eca4 g     F .text	00000154 __sfp
000317bc g     F .text	0000007c __copybits
000394c0 g     O .rwdata	00000408 __malloc_av_
0002ee28 g     F .text	00000004 __sinit_lock_release
00029510 g     F .text	000007ac .hidden __muldf3
00025ad4 g     F .text	00000b00 __ieee754_powf
00032000 g     F .text	00000054 __sread
00037cb8 g     F .text	00000108 alt_find_file
00037414 g     F .text	000000a8 alt_dev_llist_insert
000257ac g     F .text	00000090 th_read_register
00035d08 g     F .text	00000024 __malloc_lock
00035f04 g     F .text	000000b8 sbrk
0002684c g     F .text	0000014c scalbnf
0002e9c4 g     F .text	00000060 _fflush_r
00033900 g     F .text	000000c4 _calloc_r
00025194 g     F .text	00000158 RH_Temp_Sensor_Read
00021bcc g     F .text	0000004c Light_SetThreshLow
0003c8ec g       *ABS*	00000000 __bss_start
000305b8 g     F .text	000000f0 memset
000265d4 g     F .text	00000150 __ieee754_sqrtf
00023834 g     F .text	00000620 main
0003c928 g     O .bss	00000004 alt_envp
0003c90c g     O .bss	00000004 __malloc_max_total_mem
0003641c g     F .text	00000060 altera_avalon_jtag_uart_write_fd
000337b4 g     F .text	00000018 __swbuf
000274fc g     F .text	000000b4 .hidden __ltsf2
00032138 g     F .text	00000008 __sclose
00040000 g       *ABS*	00000000 __alt_heap_limit
00033af4 g     F .text	00000070 fclose
0002a724 g     F .text	00000170 .hidden __truncdfsf2
0002d054 g     F .text	00001748 _dtoa_r
0002fadc g     F .text	000007e0 _malloc_r
0003423c g     F .text	00000030 __ascii_wctomb
0003acb0 g     O .rwdata	00000004 alt_errno
00033b64 g     F .text	00000020 _fiprintf_r
00034654 g     F .text	00000060 _init_signal
00021ae8 g     F .text	000000e4 Get_light
0002f734 g     F .text	00000098 _fwalk
00033fcc g     F .text	0000000c _mbtowc_r
000252ec g     F .text	00000134 Read_Configuration
00031964 g     F .text	000000e0 putc
00026998 g     F .text	00000080 .hidden __divsi3
0003ac78 g     O .rwdata	00000002 ui16sensorRange
00024a70 g     F .text	00000438 read_all
00020978 g     F .text	00000094 oc_i2c_uninit
0002ee54 g     F .text	0000011c _malloc_trim_r
00038180 g       *ABS*	00000000 __CTOR_END__
000275b0 g     F .text	00000400 .hidden __mulsf3
00034080 g     F .text	000000b8 strcmp
00038180 g       *ABS*	00000000 __flash_rodata_start
00038180 g       *ABS*	00000000 __DTOR_LIST__
000353b8 g     F .text	00000080 .hidden __nedf2
0003630c g     F .text	0000003c alt_irq_init
00035e94 g     F .text	00000070 alt_release_fd
00038a1c g     O .rodata	00000100 .hidden __clz_tab
0003c91c g     O .bss	00000004 _PathLocale
00037f10 g     F .text	00000014 atexit
00027444 g     F .text	000000b8 .hidden __gesf2
000337cc g     F .text	00000064 _write_r
00033ef4 g     F .text	00000074 setlocale
000255fc g     F .text	0000003c th_reset
0003ac90 g     O .rwdata	00000004 _impure_ptr
0003c920 g     O .bss	00000004 alt_argc
0002e79c g     F .text	00000228 __sflush_r
00037520 g     F .text	00000064 _do_dtors
000233e8 g     F .text	00000034 Ad5270INIT
00020020 g       .exceptions	00000000 alt_irq_entry
00033fd8 g     F .text	00000044 __ascii_mbtowc
000313e0 g     F .text	0000005c __ulp
0002ee40 g     F .text	00000014 __fp_unlock_all
000219f0 g     F .text	000000f8 Light_Get_ADCData1
0003c904 g     O .bss	00000004 gyro_divider
0003ac9c g     O .rwdata	00000008 alt_fs_list
00020778 g     F .text	00000054 Read32_Data
00024f74 g     F .text	000000a0 getMotion6
00024144 g     F .text	00000148 set_gyro_scale
00020db4 g     F .text	000001f0 OC_I2C_Read
00020020 g       *ABS*	00000000 __ram_exceptions_start
0002f888 g     F .text	0000000c localeconv
0002fa44 g     F .text	00000098 __swhatbuf_r
000375a4 g     F .text	00000050 alt_ic_isr_register
0003c8f4 g     O .bss	00000004 fAdcVoltage
00021d1c g     F .text	00000054 Light_SetTiming
0003acc4 g       *ABS*	00000000 _edata
0003cb30 g       *ABS*	00000000 _end
00027e44 g     F .text	0000004c .hidden __unordsf2
00033bbc g     F .text	00000164 __fputwc
00020224 g       *ABS*	00000000 __ram_exceptions_end
000368f4 g     F .text	000000f4 altera_avalon_jtag_uart_ioctl
00021ed8 g     F .text	000004d0 convert_light_lux
00023eac g     F .text	00000094 WriteReg
0003767c g     F .text	0000008c alt_ic_irq_disable
0003205c g     F .text	00000080 __swrite
0003ac98 g     O .rwdata	00000004 __malloc_trim_threshold
000210b4 g     F .text	00000148 OC_I2C_Read_Continue
00037f24 g     F .text	00000034 exit
00033b84 g     F .text	00000038 fiprintf
00034138 g     F .text	00000004 _vfiprintf_r
0002f7cc g     F .text	000000a8 _fwalk_reent
00028024 g     F .text	000000fc .hidden __floatunsisf
000311b4 g     F .text	0000022c __mdiff
00026a18 g     F .text	00000074 .hidden __modsi3
00040000 g       *ABS*	00000000 __alt_data_end
00020020 g     F .exceptions	00000000 alt_exception
0002ee20 g     F .text	00000004 __sfp_lock_release
00024724 g     F .text	00000160 read_gyro
00023e54 g     F .text	00000058 MPU9250_Init
00025420 g     F .text	000000a4 Write_Configuration
00038dbc g     O .rodata	00000101 _ctype_
000204c4 g     F .text	0000014c readAd7790
00035438 g     F .text	00000054 .hidden __unorddf2
00020260 g     F .text	00000158 writeAd5270
0002146c g     F .text	000002f4 OC_I2CL_Read
000356e0 g     F .text	00000038 _exit
0003712c g     F .text	00000134 alt_alarm_start
0002f894 g     F .text	000001b0 __smakebuf_r
0002aa58 g     F .text	00000098 strlen
00026724 g     F .text	00000128 rintf
00034284 g     F .text	0000005c _init_signal_r
00037aa4 g     F .text	00000160 open
00029340 g     F .text	000000e8 .hidden __gedf2
0003c900 g     O .bss	00000004 acc_divider
000338ec g     F .text	00000014 __assert
00032234 g     F .text	00000018 __sprint_r
00037584 g     F .text	00000020 alt_icache_flush_all
000245c4 g     F .text	00000160 read_acc
0003acc0 g     O .rwdata	00000004 alt_priority_mask
000243bc g     F .text	000000f4 calib_acc
000375f4 g     F .text	00000088 alt_ic_irq_enable
00020fa4 g     F .text	00000110 OC_I2C_Write_Addr
0002cbf4 g     F .text	0000001c __vfprintf_internal
00034230 g     F .text	0000000c _wctomb_r
00029cbc g     F .text	000008b4 .hidden __subdf3
00030a68 g     F .text	000000b0 __lo0bits
0003acb8 g     O .rwdata	00000008 alt_alarm_list
000374bc g     F .text	00000064 _do_ctors
000346b4 g     F .text	000000bc __sigtramp
000341a8 g     F .text	00000088 wcrtomb
000355d8 g     F .text	000000dc close
00026b74 g     F .text	0000046c .hidden __addsf3
000398c8 g     O .rwdata	0000016c __global_locale
00021c64 g     F .text	00000054 Light_SetInterrupt
00035aec g     F .text	00000084 alt_load
00033d44 g     F .text	00000078 fputwc
000344f8 g     F .text	000000bc raise
0002ee24 g     F .text	00000004 __sinit_lock_acquire
00030770 g     F .text	0000015c __multadd
0003ac6c g     O .rwdata	00000004 pio1
0003074c g     F .text	00000024 _Bfree



Disassembly of section .entry:

00020000 <__reset>:
 * Jump to the _start entry point in the .text section if reset code
 * is allowed or if optimizing for RTL simulation.
 */
#if defined(ALT_ALLOW_CODE_AT_RESET) || defined(ALT_SIM_OPTIMIZE)
    /* Jump to the _start entry point in the .text section. */
    movhi r1, %hi(_start)
   20000:	004000b4 	movhi	at,2
    ori r1, r1, %lo(_start)
   20004:	08408914 	ori	at,at,548
    jmp r1
   20008:	0800683a 	jmp	at
	...

Disassembly of section .exceptions:

00020020 <alt_exception>:

#else /* ALT_EXCEPTION_STACK disabled */
        /* 
         * Reserve space on normal stack for registers about to be pushed.
         */
        addi  sp, sp, -76
   20020:	deffed04 	addi	sp,sp,-76
         * documentation for details).
         *
         * Leave a gap in the stack frame at 4(sp) for the muldiv handler to
         * store zero into.
         */
        stw   ra,  0(sp)
   20024:	dfc00015 	stw	ra,0(sp)
        stw   r1,   8(sp)
   20028:	d8400215 	stw	at,8(sp)
        stw   r2,  12(sp)
   2002c:	d8800315 	stw	r2,12(sp)
        stw   r3,  16(sp)
   20030:	d8c00415 	stw	r3,16(sp)
        stw   r4,  20(sp)
   20034:	d9000515 	stw	r4,20(sp)
        stw   r5,  24(sp)
   20038:	d9400615 	stw	r5,24(sp)
        stw   r6,  28(sp)
   2003c:	d9800715 	stw	r6,28(sp)
        stw   r7,  32(sp)
   20040:	d9c00815 	stw	r7,32(sp)
        rdctl r5, estatus   /* Read early to avoid usage stall */
   20044:	000b307a 	rdctl	r5,estatus
        stw   r8,  36(sp)
   20048:	da000915 	stw	r8,36(sp)
        stw   r9,  40(sp)
   2004c:	da400a15 	stw	r9,40(sp)
        stw   r10, 44(sp)
   20050:	da800b15 	stw	r10,44(sp)
        stw   r11, 48(sp)
   20054:	dac00c15 	stw	r11,48(sp)
        stw   r12, 52(sp)
   20058:	db000d15 	stw	r12,52(sp)
        stw   r13, 56(sp)
   2005c:	db400e15 	stw	r13,56(sp)
        stw   r14, 60(sp)
   20060:	db800f15 	stw	r14,60(sp)
        stw   r15, 64(sp)
   20064:	dbc01015 	stw	r15,64(sp)
        /*
         * ea-4 contains the address of the instruction being executed
         * when the exception occured. For interrupt exceptions, we will
         * will be re-issue the isntruction. Store it in 72(sp)
         */
        stw   r5,  68(sp)  /* estatus */
   20068:	d9401115 	stw	r5,68(sp)
        addi  r15, ea, -4  /* instruction that caused exception */
   2006c:	ebffff04 	addi	r15,ea,-4
        stw   r15,  72(sp)
   20070:	dbc01215 	stw	r15,72(sp)
#else
        /*
         * Test to see if the exception was a software exception or caused 
         * by an external interrupt, and vector accordingly.
         */
        rdctl r4, ipending
   20074:	0009313a 	rdctl	r4,ipending
        andi  r2, r5, 1
   20078:	2880004c 	andi	r2,r5,1
        beq   r2, zero, .Lnot_irq
   2007c:	10000326 	beq	r2,zero,2008c <alt_exception+0x6c>
        beq   r4, zero, .Lnot_irq
   20080:	20000226 	beq	r4,zero,2008c <alt_exception+0x6c>
        /*
         * Now that all necessary registers have been preserved, call 
         * alt_irq_handler() to process the interrupts.
         */

        call alt_irq_handler
   20084:	00200fc0 	call	200fc <alt_irq_handler>

        .section .exceptions.irqreturn, "xa"

        br    .Lexception_exit
   20088:	00000706 	br	200a8 <alt_exception+0x88>
         * upon completion, so we write ea (address of instruction *after*
         * the one where the exception occured) into 72(sp). The actual
         * instruction that caused the exception is written in r2, which these
         * handlers will utilize.
         */
        stw ea, 72(sp) /* EA is PC+4 so will skip over instruction causing exception */
   2008c:	df401215 	stw	ea,72(sp)
.Lunknown_16bit:
        addi.n r4, r4, 2 /* Need PC+2 to skip over instruction causing exception */
        stw r4, 72(sp)

#else /* CDX is not Enabled and all instructions are 32bits */
        ldw r2, -4(ea) /* Instruction value that caused exception */
   20090:	e8bfff17 	ldw	r2,-4(ea)
         * debugger is present) or go into an infinite loop since the
         * handling behavior is undefined; in that case we will not return here.
         */

        /* Load exception-causing address as first argument (r4) */
        addi   r4, ea, -4
   20094:	e93fff04 	addi	r4,ea,-4

        /* Call the instruction-exception entry */
        call   alt_instruction_exception_entry
   20098:	00201c40 	call	201c4 <alt_instruction_exception_entry>
         * instruction
         *
         * Return code was 0: Skip. The instruction after the exception is
         * already stored in 72(sp).
         */
        bne   r2, r0, .Lexception_exit
   2009c:	1000021e 	bne	r2,zero,200a8 <alt_exception+0x88>

        /*
         * Otherwise, modify 72(sp) to re-issue the instruction that caused the
         * exception.
         */
        addi  r15, ea, -4  /* instruction that caused exception */
   200a0:	ebffff04 	addi	r15,ea,-4
        stw   r15,  72(sp)
   200a4:	dbc01215 	stw	r15,72(sp)
        /* 
         * Restore the saved registers, so that all general purpose registers 
         * have been restored to their state at the time the interrupt occured.
         */

        ldw   r5,  68(sp)
   200a8:	d9401117 	ldw	r5,68(sp)
        ldw   ea,  72(sp)  /* This becomes the PC once eret is executed */
   200ac:	df401217 	ldw	ea,72(sp)
        ldw   ra,   0(sp)
   200b0:	dfc00017 	ldw	ra,0(sp)

        wrctl estatus, r5
   200b4:	2801707a 	wrctl	estatus,r5

        ldw   r1,   8(sp)
   200b8:	d8400217 	ldw	at,8(sp)
        ldw   r2,  12(sp)
   200bc:	d8800317 	ldw	r2,12(sp)
        ldw   r3,  16(sp)
   200c0:	d8c00417 	ldw	r3,16(sp)
        ldw   r4,  20(sp)
   200c4:	d9000517 	ldw	r4,20(sp)
        ldw   r5,  24(sp)
   200c8:	d9400617 	ldw	r5,24(sp)
        ldw   r6,  28(sp)
   200cc:	d9800717 	ldw	r6,28(sp)
        ldw   r7,  32(sp)
   200d0:	d9c00817 	ldw	r7,32(sp)

#if defined(ALT_EXCEPTION_STACK) && defined(ALT_STACK_CHECK)
        ldw   et, %gprel(alt_exception_old_stack_limit)(gp)
#endif

        ldw   r8,  36(sp)
   200d4:	da000917 	ldw	r8,36(sp)
        ldw   r9,  40(sp)
   200d8:	da400a17 	ldw	r9,40(sp)
        ldw   r10, 44(sp)
   200dc:	da800b17 	ldw	r10,44(sp)
        ldw   r11, 48(sp)
   200e0:	dac00c17 	ldw	r11,48(sp)
        ldw   r12, 52(sp)
   200e4:	db000d17 	ldw	r12,52(sp)
        ldw   r13, 56(sp)
   200e8:	db400e17 	ldw	r13,56(sp)
        ldw   r14, 60(sp)
   200ec:	db800f17 	ldw	r14,60(sp)
        ldw   r15, 64(sp)
   200f0:	dbc01017 	ldw	r15,64(sp)
        stw   et, %gprel(alt_stack_limit_value)(gp)
        stw   zero, %gprel(alt_exception_old_stack_limit)(gp)
#endif /* ALT_STACK_CHECK */
        ldw   sp,  76(sp)
#else /* ALT_EXCEPTION_STACK disabled */
        addi  sp, sp, 76
   200f4:	dec01304 	addi	sp,sp,76

        /*
         * Return to the interrupted instruction.
         */

        eret
   200f8:	ef80083a 	eret

000200fc <alt_irq_handler>:
 * instruction is present if the macro ALT_CI_INTERRUPT_VECTOR defined.
 */

void alt_irq_handler (void) __attribute__ ((section (".exceptions")));
void alt_irq_handler (void)
{
   200fc:	defff904 	addi	sp,sp,-28
   20100:	dfc00615 	stw	ra,24(sp)
   20104:	df000515 	stw	fp,20(sp)
   20108:	df000504 	addi	fp,sp,20
  
  /*
   * Notify the operating system that we are at interrupt level.
   */ 
  
  ALT_OS_INT_ENTER();
   2010c:	0001883a 	nop
#ifndef NIOS2_EIC_PRESENT
static ALT_INLINE alt_u32 ALT_ALWAYS_INLINE alt_irq_pending (void)
{
  alt_u32 active;

  NIOS2_READ_IPENDING (active);
   20110:	0005313a 	rdctl	r2,ipending
   20114:	e0bffc15 	stw	r2,-16(fp)

  return active;
   20118:	e0bffc17 	ldw	r2,-16(fp)
   * Consider the case where the high priority interupt is asserted during
   * the interrupt entry sequence for a lower priority interrupt to see why
   * this is the case.
   */

  active = alt_irq_pending ();
   2011c:	e0bfff15 	stw	r2,-4(fp)

  do
  {
    i = 0;
   20120:	e03ffd15 	stw	zero,-12(fp)
    mask = 1;
   20124:	00800044 	movi	r2,1
   20128:	e0bffe15 	stw	r2,-8(fp)
     * called to clear the interrupt condition.
     */

    do
    {
      if (active & mask)
   2012c:	e0ffff17 	ldw	r3,-4(fp)
   20130:	e0bffe17 	ldw	r2,-8(fp)
   20134:	1884703a 	and	r2,r3,r2
   20138:	10001126 	beq	r2,zero,20180 <alt_irq_handler+0x84>
      { 
#ifdef ALT_ENHANCED_INTERRUPT_API_PRESENT
        alt_irq[i].handler(alt_irq[i].context); 
   2013c:	e0bffd17 	ldw	r2,-12(fp)
   20140:	100690fa 	slli	r3,r2,3
   20144:	00800134 	movhi	r2,4
   20148:	1885883a 	add	r2,r3,r2
   2014c:	10f28c17 	ldw	r3,-13776(r2)
   20150:	e0bffd17 	ldw	r2,-12(fp)
   20154:	100890fa 	slli	r4,r2,3
   20158:	00800134 	movhi	r2,4
   2015c:	2085883a 	add	r2,r4,r2
   20160:	10b28d17 	ldw	r2,-13772(r2)
   20164:	1009883a 	mov	r4,r2
   20168:	183ee83a 	callr	r3
#else
        alt_irq[i].handler(alt_irq[i].context, i); 
#endif
        break;
   2016c:	0001883a 	nop
  NIOS2_READ_IPENDING (active);
   20170:	0005313a 	rdctl	r2,ipending
   20174:	e0bffb15 	stw	r2,-20(fp)
  return active;
   20178:	e0bffb17 	ldw	r2,-20(fp)
   2017c:	00000706 	br	2019c <alt_irq_handler+0xa0>
      }
      mask <<= 1;
   20180:	e0bffe17 	ldw	r2,-8(fp)
   20184:	1085883a 	add	r2,r2,r2
   20188:	e0bffe15 	stw	r2,-8(fp)
      i++;
   2018c:	e0bffd17 	ldw	r2,-12(fp)
   20190:	10800044 	addi	r2,r2,1
   20194:	e0bffd15 	stw	r2,-12(fp)
      if (active & mask)
   20198:	003fe406 	br	2012c <alt_irq_handler+0x30>

    } while (1);

    active = alt_irq_pending ();
   2019c:	e0bfff15 	stw	r2,-4(fp)
    
  } while (active);
   201a0:	e0bfff17 	ldw	r2,-4(fp)
   201a4:	103fde1e 	bne	r2,zero,20120 <alt_irq_handler+0x24>

  /*
   * Notify the operating system that interrupt processing is complete.
   */ 

  ALT_OS_INT_EXIT();
   201a8:	0001883a 	nop
}
   201ac:	0001883a 	nop
   201b0:	e037883a 	mov	sp,fp
   201b4:	dfc00117 	ldw	ra,4(sp)
   201b8:	df000017 	ldw	fp,0(sp)
   201bc:	dec00204 	addi	sp,sp,8
   201c0:	f800283a 	ret

000201c4 <alt_instruction_exception_entry>:
 * that handler if it has been registered. Absent a handler, it will
 * break break or hang as discussed below.
 */
int 
alt_instruction_exception_entry (alt_u32 exception_pc)
{
   201c4:	defffb04 	addi	sp,sp,-20
   201c8:	dfc00415 	stw	ra,16(sp)
   201cc:	df000315 	stw	fp,12(sp)
   201d0:	df000304 	addi	fp,sp,12
   201d4:	e13ffd15 	stw	r4,-12(fp)
  cause = ( (cause & NIOS2_EXCEPTION_REG_CAUSE_MASK) >>
              NIOS2_EXCEPTION_REG_CAUSE_OFST );

  NIOS2_READ_BADADDR(badaddr);
#else
  cause = NIOS2_EXCEPTION_CAUSE_NOT_PRESENT;
   201d8:	00bfffc4 	movi	r2,-1
   201dc:	e0bfff15 	stw	r2,-4(fp)
  badaddr = 0;
   201e0:	e03ffe15 	stw	zero,-8(fp)
#endif /* NIOS2_HAS_EXTRA_EXCEPTION_INFO */

  if(alt_instruction_exception_handler) {
   201e4:	d0a73417 	ldw	r2,-25392(gp)
   201e8:	10000726 	beq	r2,zero,20208 <alt_instruction_exception_entry+0x44>
     * Call handler. Its return value indicates whether the exception-causing
     * instruction should be re-issued. The code that called us,
     * alt_eceptions_entry.S, will look at this value and adjust the ea
     * register as necessary
     */
    return alt_instruction_exception_handler(cause, exception_pc, badaddr);
   201ec:	d0a73417 	ldw	r2,-25392(gp)
   201f0:	e0ffff17 	ldw	r3,-4(fp)
   201f4:	e1bffe17 	ldw	r6,-8(fp)
   201f8:	e17ffd17 	ldw	r5,-12(fp)
   201fc:	1809883a 	mov	r4,r3
   20200:	103ee83a 	callr	r2
   20204:	00000206 	br	20210 <alt_instruction_exception_entry+0x4c>
   *    (a peripheral which negates its interrupt output before its
   *    interrupt handler has been executed will cause spurious interrupts)
   */
  else {
#ifdef NIOS2_HAS_DEBUG_STUB
    NIOS2_BREAK();
   20208:	003da03a 	break	0
      ;
#endif /* NIOS2_HAS_DEBUG_STUB */
  }

  /* We should not get here. Remove compiler warning. */
  return NIOS2_EXCEPTION_RETURN_REISSUE_INST;
   2020c:	0005883a 	mov	r2,zero
}
   20210:	e037883a 	mov	sp,fp
   20214:	dfc00117 	ldw	ra,4(sp)
   20218:	df000017 	ldw	fp,0(sp)
   2021c:	dec00204 	addi	sp,sp,8
   20220:	f800283a 	ret

Disassembly of section .text:

00020224 <_start>:

    /*
     * Now that the caches are initialized, set up the stack pointer and global pointer.
     * The values provided by the linker are assumed to be correctly aligned.
     */
    movhi sp, %hi(__alt_stack_pointer)
   20224:	06c00134 	movhi	sp,4
    ori sp, sp, %lo(__alt_stack_pointer)
   20228:	dec00014 	ori	sp,sp,0
    movhi gp, %hi(_gp)
   2022c:	06800134 	movhi	gp,4
    ori gp, gp, %lo(_gp)
   20230:	d68b1a14 	ori	gp,gp,11368
 */
#ifndef ALT_SIM_OPTIMIZE
    /* Log that the BSS is about to be cleared. */
    ALT_LOG_PUTS(alt_log_msg_bss)

    movhi r2, %hi(__bss_start)
   20234:	008000f4 	movhi	r2,3
    ori r2, r2, %lo(__bss_start)
   20238:	10b23b14 	ori	r2,r2,51436

    movhi r3, %hi(__bss_end)
   2023c:	00c000f4 	movhi	r3,3
    ori r3, r3, %lo(__bss_end)
   20240:	18f2cc14 	ori	r3,r3,52016

    beq r2, r3, 1f
   20244:	10c00326 	beq	r2,r3,20254 <_start+0x30>

0:
    stw zero, (r2)
   20248:	10000015 	stw	zero,0(r2)
    addi r2, r2, 4
   2024c:	10800104 	addi	r2,r2,4
    bltu r2, r3, 0b
   20250:	10fffd36 	bltu	r2,r3,20248 <_start+0x24>
     * section aren't defined until alt_load() has been called).
     */
    mov   et, zero
#endif

    call alt_load
   20254:	0035aec0 	call	35aec <alt_load>

    /* Log that alt_main is about to be called. */
    ALT_LOG_PUTS(alt_log_msg_alt_main)

    /* Call the C entry point. It should never return. */
    call alt_main
   20258:	0035c8c0 	call	35c8c <alt_main>

0002025c <alt_after_alt_main>:

    /* Wait in infinite loop in case alt_main does return. */
alt_after_alt_main:
    br alt_after_alt_main
   2025c:	003fff06 	br	2025c <alt_after_alt_main>

00020260 <writeAd5270>:
#include "AD5270.h"

volatile int* pio = (int*) (PIO_BASE);

void writeAd5270 (uint8_t ui8command, uint16_t ui16value)
{
   20260:	defff704 	addi	sp,sp,-36
   20264:	dfc00815 	stw	ra,32(sp)
   20268:	df000715 	stw	fp,28(sp)
   2026c:	df000704 	addi	fp,sp,28
   20270:	2005883a 	mov	r2,r4
   20274:	2807883a 	mov	r3,r5
   20278:	e0bffd05 	stb	r2,-12(fp)
   2027c:	1805883a 	mov	r2,r3
   20280:	e0bffc0d 	sth	r2,-16(fp)
	uint8_t ui8DacUpperCodes = 0;			// Data register read MSB
   20284:	e03fffc5 	stb	zero,-1(fp)
	uint8_t ui8DacLowerCodes = 0;			// Data register read MSB
   20288:	e03fff85 	stb	zero,-2(fp)
	uint16_t ui16DacCodes = 0;
   2028c:	e03fff0d 	sth	zero,-4(fp)

	if (ui8command == 1)
   20290:	e0bffd03 	ldbu	r2,-12(fp)
   20294:	10800058 	cmpnei	r2,r2,1
   20298:	10000c1e 	bne	r2,zero,202cc <writeAd5270+0x6c>
	{
		ui16DacCodes = (ui8command << 10);
   2029c:	e0bffd03 	ldbu	r2,-12(fp)
   202a0:	100492ba 	slli	r2,r2,10
   202a4:	e0bfff0d 	sth	r2,-4(fp)
		ui16DacCodes = (ui16DacCodes | (ui16value));
   202a8:	e0ffff0b 	ldhu	r3,-4(fp)
   202ac:	e0bffc0b 	ldhu	r2,-16(fp)
   202b0:	1884b03a 	or	r2,r3,r2
   202b4:	e0bfff0d 	sth	r2,-4(fp)
		ui8DacLowerCodes = ui16DacCodes & 0xFF;
   202b8:	e0bfff0b 	ldhu	r2,-4(fp)
   202bc:	e0bfff85 	stb	r2,-2(fp)
		ui8DacUpperCodes = (ui16DacCodes >> 8) & 0xFF;
   202c0:	e0bfff0b 	ldhu	r2,-4(fp)
   202c4:	1004d23a 	srli	r2,r2,8
   202c8:	e0bfffc5 	stb	r2,-1(fp)
	}
	if (ui8command == 5 || ui8command == 7 || ui8command == 9)
   202cc:	e0bffd03 	ldbu	r2,-12(fp)
   202d0:	10800160 	cmpeqi	r2,r2,5
   202d4:	1000061e 	bne	r2,zero,202f0 <writeAd5270+0x90>
   202d8:	e0bffd03 	ldbu	r2,-12(fp)
   202dc:	108001e0 	cmpeqi	r2,r2,7
   202e0:	1000031e 	bne	r2,zero,202f0 <writeAd5270+0x90>
   202e4:	e0bffd03 	ldbu	r2,-12(fp)
   202e8:	10800258 	cmpnei	r2,r2,9
   202ec:	1000051e 	bne	r2,zero,20304 <writeAd5270+0xa4>
	{
		ui8DacLowerCodes = ui16value & 0xFF;
   202f0:	e0bffc0b 	ldhu	r2,-16(fp)
   202f4:	e0bfff85 	stb	r2,-2(fp)
		ui8DacUpperCodes = (ui8command  << 2);
   202f8:	e0bffd03 	ldbu	r2,-12(fp)
   202fc:	100490ba 	slli	r2,r2,2
   20300:	e0bfffc5 	stb	r2,-1(fp)
	}
	if (ui8command == 0xF0)			//SDO High Z prep
   20304:	e0bffd03 	ldbu	r2,-12(fp)
   20308:	10803c18 	cmpnei	r2,r2,240
   2030c:	1000051e 	bne	r2,zero,20324 <writeAd5270+0xc4>
	{
		ui8DacLowerCodes = ui16value & 0xFF;
   20310:	e0bffc0b 	ldhu	r2,-16(fp)
   20314:	e0bfff85 	stb	r2,-2(fp)
		ui8DacUpperCodes = (ui16value >> 8) & 0xFF;
   20318:	e0bffc0b 	ldhu	r2,-16(fp)
   2031c:	1004d23a 	srli	r2,r2,8
   20320:	e0bfffc5 	stb	r2,-1(fp)
	}
	if (ui8command == 0x0F)			// SDO High Z
   20324:	e0bffd03 	ldbu	r2,-12(fp)
   20328:	108003d8 	cmpnei	r2,r2,15
   2032c:	1000051e 	bne	r2,zero,20344 <writeAd5270+0xe4>
	{
		ui8DacLowerCodes = ui16value & 0xFF;
   20330:	e0bffc0b 	ldhu	r2,-16(fp)
   20334:	e0bfff85 	stb	r2,-2(fp)
		ui8DacUpperCodes = (ui16value >> 8) & 0xFF;
   20338:	e0bffc0b 	ldhu	r2,-16(fp)
   2033c:	1004d23a 	srli	r2,r2,8
   20340:	e0bfffc5 	stb	r2,-1(fp)
	}
	//digitalWrite(AD5270_SS,LOW);
	alt_u8 data_send[2] = {ui8DacUpperCodes, ui8DacLowerCodes};
   20344:	e0bfffc3 	ldbu	r2,-1(fp)
   20348:	e0bffe85 	stb	r2,-6(fp)
   2034c:	e0bfff83 	ldbu	r2,-2(fp)
   20350:	e0bffec5 	stb	r2,-5(fp)
	alt_u8 data_recv[1]= {DUMMY_DATA};
   20354:	00bfea84 	movi	r2,-86
   20358:	e0bffe45 	stb	r2,-7(fp)
	*pio = SS_ACTIVE_5270;
   2035c:	d0a00017 	ldw	r2,-32768(gp)
   20360:	00c00084 	movi	r3,2
   20364:	10c00015 	stw	r3,0(r2)
	alt_avalon_spi_command(SPI_BASE, AD5270SS, 2, data_send, 0, data_recv, 0);
   20368:	e0fffe84 	addi	r3,fp,-6
   2036c:	d8000215 	stw	zero,8(sp)
   20370:	e0bffe44 	addi	r2,fp,-7
   20374:	d8800115 	stw	r2,4(sp)
   20378:	d8000015 	stw	zero,0(sp)
   2037c:	180f883a 	mov	r7,r3
   20380:	01800084 	movi	r6,2
   20384:	000b883a 	mov	r5,zero
   20388:	01000134 	movhi	r4,4
   2038c:	21046004 	addi	r4,r4,4480
   20390:	0036e300 	call	36e30 <alt_avalon_spi_command>

	*pio = SS_RESET_5270;
   20394:	d0a00017 	ldw	r2,-32768(gp)
   20398:	00c000c4 	movi	r3,3
   2039c:	10c00015 	stw	r3,0(r2)
    Serial.println(ui16DacCodes);
	Serial.print("Digipot Upper 8 Bits = ");
    Serial.println(ui8DacUpperCodes);
	Serial.print("Digipot Lower 8 Bits = ");
    Serial.println(ui8DacLowerCodes);*/
}
   203a0:	0001883a 	nop
   203a4:	e037883a 	mov	sp,fp
   203a8:	dfc00117 	ldw	ra,4(sp)
   203ac:	df000017 	ldw	fp,0(sp)
   203b0:	dec00204 	addi	sp,sp,8
   203b4:	f800283a 	ret

000203b8 <readAd5270>:

alt_u16 readAd5270 (uint8_t ui8command)
{
   203b8:	defff704 	addi	sp,sp,-36
   203bc:	dfc00815 	stw	ra,32(sp)
   203c0:	df000715 	stw	fp,28(sp)
   203c4:	df000704 	addi	fp,sp,28
   203c8:	2005883a 	mov	r2,r4
   203cc:	e0bffc05 	stb	r2,-16(fp)
	uint8_t ui8DacUpperCodes = 0;			// Data register read MSB
   203d0:	e03fff45 	stb	zero,-3(fp)
	uint8_t ui8DacLowerCodes = 0;			// Data register read LSB
   203d4:	e03fff05 	stb	zero,-4(fp)
	uint8_t ui8DacReadUpper = 0;
   203d8:	e03ffec5 	stb	zero,-5(fp)
	uint8_t ui8DacReadLower = 0;
   203dc:	e03ffe85 	stb	zero,-6(fp)
	uint16_t ui16DacRead = 0;
   203e0:	e03fff8d 	sth	zero,-2(fp)

	if ((ui8command != 1) || (ui8command != 5) || (ui8command != 7) || (ui8command != 9))
   203e4:	e0bffc03 	ldbu	r2,-16(fp)
   203e8:	10800058 	cmpnei	r2,r2,1
   203ec:	1000091e 	bne	r2,zero,20414 <readAd5270+0x5c>
   203f0:	e0bffc03 	ldbu	r2,-16(fp)
   203f4:	10800158 	cmpnei	r2,r2,5
   203f8:	1000061e 	bne	r2,zero,20414 <readAd5270+0x5c>
   203fc:	e0bffc03 	ldbu	r2,-16(fp)
   20400:	108001d8 	cmpnei	r2,r2,7
   20404:	1000031e 	bne	r2,zero,20414 <readAd5270+0x5c>
   20408:	e0bffc03 	ldbu	r2,-16(fp)
   2040c:	10800260 	cmpeqi	r2,r2,9
   20410:	1000261e 	bne	r2,zero,204ac <readAd5270+0xf4>
	{
		ui8DacLowerCodes = 0;
   20414:	e03fff05 	stb	zero,-4(fp)
		ui8DacUpperCodes = (ui8command << 2);
   20418:	e0bffc03 	ldbu	r2,-16(fp)
   2041c:	100490ba 	slli	r2,r2,2
   20420:	e0bfff45 	stb	r2,-3(fp)
		alt_u8 data_send[2] = {ui8DacUpperCodes, ui8DacLowerCodes};
   20424:	e0bfff43 	ldbu	r2,-3(fp)
   20428:	e0bffe05 	stb	r2,-8(fp)
   2042c:	e0bfff03 	ldbu	r2,-4(fp)
   20430:	e0bffe45 	stb	r2,-7(fp)
		alt_u8 data_recv[2] = {DUMMY_DATA, DUMMY_DATA};
   20434:	00aaaa84 	movi	r2,-21846
   20438:	e0bffd8d 	sth	r2,-10(fp)
		*pio = SS_ACTIVE_5270;
   2043c:	d0a00017 	ldw	r2,-32768(gp)
   20440:	00c00084 	movi	r3,2
   20444:	10c00015 	stw	r3,0(r2)
		alt_avalon_spi_command(SPI_BASE, AD5270SS, 2, data_send, 0, data_recv, 0);
   20448:	e0fffe04 	addi	r3,fp,-8
   2044c:	d8000215 	stw	zero,8(sp)
   20450:	e0bffd84 	addi	r2,fp,-10
   20454:	d8800115 	stw	r2,4(sp)
   20458:	d8000015 	stw	zero,0(sp)
   2045c:	180f883a 	mov	r7,r3
   20460:	01800084 	movi	r6,2
   20464:	000b883a 	mov	r5,zero
   20468:	01000134 	movhi	r4,4
   2046c:	21046004 	addi	r4,r4,4480
   20470:	0036e300 	call	36e30 <alt_avalon_spi_command>
		*pio = SS_RESET_5270;
   20474:	d0a00017 	ldw	r2,-32768(gp)
   20478:	00c000c4 	movi	r3,3
   2047c:	10c00015 	stw	r3,0(r2)
		ui8DacReadUpper = data_recv[0];
   20480:	e0bffd83 	ldbu	r2,-10(fp)
   20484:	e0bffec5 	stb	r2,-5(fp)
		ui8DacReadLower = data_recv[1];
   20488:	e0bffdc3 	ldbu	r2,-9(fp)
   2048c:	e0bffe85 	stb	r2,-6(fp)
		//SPI.transfer(ui8DacLowerCodes);
		//ui8DacReadUpper = SPI.transfer(0x00);			//Data register read MSB
		//ui8DacReadLower = SPI.transfer(0x00);			//Data register read LSB
		//digitalWrite(AD5270_SS,HIGH);
		
		ui16DacRead = (unsigned int)(((unsigned int)(ui8DacReadUpper << 8) | ui8DacReadLower) & 0x03FF);
   20490:	e0bffec3 	ldbu	r2,-5(fp)
   20494:	1004923a 	slli	r2,r2,8
   20498:	1007883a 	mov	r3,r2
   2049c:	e0bffe83 	ldbu	r2,-6(fp)
   204a0:	1884b03a 	or	r2,r3,r2
   204a4:	1080ffcc 	andi	r2,r2,1023
   204a8:	e0bfff8d 	sth	r2,-2(fp)

	}
	
	return ui16DacRead;
   204ac:	e0bfff8b 	ldhu	r2,-2(fp)
}
   204b0:	e037883a 	mov	sp,fp
   204b4:	dfc00117 	ldw	ra,4(sp)
   204b8:	df000017 	ldw	fp,0(sp)
   204bc:	dec00204 	addi	sp,sp,8
   204c0:	f800283a 	ret

000204c4 <readAd7790>:


volatile int* pio1 = (int*) (PIO_BASE);

uint16_t readAd7790 (uint8_t ui8address)
{
   204c4:	defff704 	addi	sp,sp,-36
   204c8:	dfc00815 	stw	ra,32(sp)
   204cc:	df000715 	stw	fp,28(sp)
   204d0:	df000704 	addi	fp,sp,28
   204d4:	2005883a 	mov	r2,r4
   204d8:	e0bffc05 	stb	r2,-16(fp)
	uint8_t ui8AdcUpperCodes = 0;			// Data register read MSB
   204dc:	e03fff45 	stb	zero,-3(fp)
	uint8_t ui8AdcLowerCodes = 0;			// Data register read LSB
   204e0:	e03fff05 	stb	zero,-4(fp)
	uint16_t ui16AdcCodes = 0;
   204e4:	e03fff8d 	sth	zero,-2(fp)

	if (ui8address == DATA_READ)
   204e8:	e0bffc03 	ldbu	r2,-16(fp)
   204ec:	10800e18 	cmpnei	r2,r2,56
   204f0:	1000231e 	bne	r2,zero,20580 <readAd7790+0xbc>
	{	
		alt_u8 data_send[1] = {ui8address};
   204f4:	e0bffc03 	ldbu	r2,-16(fp)
   204f8:	e0bffec5 	stb	r2,-5(fp)
		alt_u8 data_recv[2] = {DUMMY_DATA, DUMMY_DATA};
   204fc:	00bfea84 	movi	r2,-86
   20500:	e0bffe45 	stb	r2,-7(fp)
   20504:	00bfea84 	movi	r2,-86
   20508:	e0bffe85 	stb	r2,-6(fp)
		*pio1 = SS_ACTIVE_7790;
   2050c:	d0a00117 	ldw	r2,-32764(gp)
   20510:	00c00044 	movi	r3,1
   20514:	10c00015 	stw	r3,0(r2)
		alt_avalon_spi_command(SPI_BASE, AD7790SS, 1, data_send, 2, data_recv, 0);
   20518:	e0fffec4 	addi	r3,fp,-5
   2051c:	d8000215 	stw	zero,8(sp)
   20520:	e0bffe44 	addi	r2,fp,-7
   20524:	d8800115 	stw	r2,4(sp)
   20528:	00800084 	movi	r2,2
   2052c:	d8800015 	stw	r2,0(sp)
   20530:	180f883a 	mov	r7,r3
   20534:	01800044 	movi	r6,1
   20538:	01400044 	movi	r5,1
   2053c:	01000134 	movhi	r4,4
   20540:	21046004 	addi	r4,r4,4480
   20544:	0036e300 	call	36e30 <alt_avalon_spi_command>
		*pio1 = SS_RESET_7790;
   20548:	d0a00117 	ldw	r2,-32764(gp)
   2054c:	00c000c4 	movi	r3,3
   20550:	10c00015 	stw	r3,0(r2)
		//SPI.transfer(ui8address);
		//ui8AdcUpperCodes = SPI.transfer(0x00);			//Data register read MSB
		//ui8AdcLowerCodes = SPI.transfer(0x00);			//Data register read LSB
		//digitalWrite(AD7790_SS,HIGH);
		//printf("SPI ADC read: 0x%x 0x%x",data_recv[0], data_recv[1]);
		ui8AdcUpperCodes = data_recv[0];
   20554:	e0bffe43 	ldbu	r2,-7(fp)
   20558:	e0bfff45 	stb	r2,-3(fp)
		ui8AdcLowerCodes = data_recv[1];
   2055c:	e0bffe83 	ldbu	r2,-6(fp)
   20560:	e0bfff05 	stb	r2,-4(fp)
		ui16AdcCodes = (unsigned int)((unsigned int)(ui8AdcUpperCodes << 8) | ui8AdcLowerCodes);
   20564:	e0bfff43 	ldbu	r2,-3(fp)
   20568:	1004923a 	slli	r2,r2,8
   2056c:	1007883a 	mov	r3,r2
   20570:	e0bfff03 	ldbu	r2,-4(fp)
   20574:	1884b03a 	or	r2,r3,r2
   20578:	e0bfff8d 	sth	r2,-2(fp)
   2057c:	00001e06 	br	205f8 <readAd7790+0x134>
		Serial.print("ADC Lower 8 Bits : ");  
		Serial.println(ui8AdcLowerCodes,2);*/
	}
	else
	{
		alt_u8 data_send[1] = {ui8address};
   20580:	e0bffc03 	ldbu	r2,-16(fp)
   20584:	e0bffe05 	stb	r2,-8(fp)
		alt_u8 data_recv[1] = {DUMMY_DATA};
   20588:	00bfea84 	movi	r2,-86
   2058c:	e0bffdc5 	stb	r2,-9(fp)
		*pio1 = SS_ACTIVE_7790;
   20590:	d0a00117 	ldw	r2,-32764(gp)
   20594:	00c00044 	movi	r3,1
   20598:	10c00015 	stw	r3,0(r2)
		alt_avalon_spi_command(SPI_BASE, AD7790SS, 1, data_send, 1, data_recv, 0);
   2059c:	e0fffe04 	addi	r3,fp,-8
   205a0:	d8000215 	stw	zero,8(sp)
   205a4:	e0bffdc4 	addi	r2,fp,-9
   205a8:	d8800115 	stw	r2,4(sp)
   205ac:	00800044 	movi	r2,1
   205b0:	d8800015 	stw	r2,0(sp)
   205b4:	180f883a 	mov	r7,r3
   205b8:	01800044 	movi	r6,1
   205bc:	01400044 	movi	r5,1
   205c0:	01000134 	movhi	r4,4
   205c4:	21046004 	addi	r4,r4,4480
   205c8:	0036e300 	call	36e30 <alt_avalon_spi_command>
		*pio1 = SS_RESET_7790;
   205cc:	d0a00117 	ldw	r2,-32764(gp)
   205d0:	00c000c4 	movi	r3,3
   205d4:	10c00015 	stw	r3,0(r2)
		//digitalWrite(AD7790_SS,LOW);
		//SPI.transfer(ui8address);
		//ui8AdcLowerCodes = SPI.transfer(0x00);			// register read
		//digitalWrite(AD7790_SS,HIGH);
		ui8AdcLowerCodes = data_recv[0];
   205d8:	e0bffdc3 	ldbu	r2,-9(fp)
   205dc:	e0bfff05 	stb	r2,-4(fp)
		ui16AdcCodes = ((long)ui8AdcUpperCodes << 8) | ui8AdcLowerCodes;
   205e0:	e0bfff43 	ldbu	r2,-3(fp)
   205e4:	1004923a 	slli	r2,r2,8
   205e8:	1007883a 	mov	r3,r2
   205ec:	e0bfff03 	ldbu	r2,-4(fp)
   205f0:	1884b03a 	or	r2,r3,r2
   205f4:	e0bfff8d 	sth	r2,-2(fp)
		Serial.println(ui8address);
		Serial.print(" Reading Register Value : ");
		Serial.println(ui16AdcCodes);*/
	}

	return ui16AdcCodes;
   205f8:	e0bfff8b 	ldhu	r2,-2(fp)
}
   205fc:	e037883a 	mov	sp,fp
   20600:	dfc00117 	ldw	ra,4(sp)
   20604:	df000017 	ldw	fp,0(sp)
   20608:	dec00204 	addi	sp,sp,8
   2060c:	f800283a 	ret

00020610 <writeAd7790>:

void writeAd7790 (uint8_t ui8address, uint8_t ui8value)
{
   20610:	defff704 	addi	sp,sp,-36
   20614:	dfc00815 	stw	ra,32(sp)
   20618:	df000715 	stw	fp,28(sp)
   2061c:	df000704 	addi	fp,sp,28
   20620:	2005883a 	mov	r2,r4
   20624:	2807883a 	mov	r3,r5
   20628:	e0bffd05 	stb	r2,-12(fp)
   2062c:	1805883a 	mov	r2,r3
   20630:	e0bffc05 	stb	r2,-16(fp)
	
	if (ui8address != RESET)
   20634:	e0bffd03 	ldbu	r2,-12(fp)
   20638:	10803fe0 	cmpeqi	r2,r2,255
   2063c:	1000181e 	bne	r2,zero,206a0 <writeAd7790+0x90>
	{
		alt_u8 data_send[2] = {ui8address, ui8value};
   20640:	e0bffd03 	ldbu	r2,-12(fp)
   20644:	e0bfff85 	stb	r2,-2(fp)
   20648:	e0bffc03 	ldbu	r2,-16(fp)
   2064c:	e0bfffc5 	stb	r2,-1(fp)
		alt_u8 data_recv[1]= {DUMMY_DATA};
   20650:	00bfea84 	movi	r2,-86
   20654:	e0bfff45 	stb	r2,-3(fp)
		*pio1 = SS_ACTIVE_7790;
   20658:	d0a00117 	ldw	r2,-32764(gp)
   2065c:	00c00044 	movi	r3,1
   20660:	10c00015 	stw	r3,0(r2)
		alt_avalon_spi_command(SPI_BASE, AD7790SS, 2, data_send, 0, data_recv, 0);
   20664:	e0ffff84 	addi	r3,fp,-2
   20668:	d8000215 	stw	zero,8(sp)
   2066c:	e0bfff44 	addi	r2,fp,-3
   20670:	d8800115 	stw	r2,4(sp)
   20674:	d8000015 	stw	zero,0(sp)
   20678:	180f883a 	mov	r7,r3
   2067c:	01800084 	movi	r6,2
   20680:	01400044 	movi	r5,1
   20684:	01000134 	movhi	r4,4
   20688:	21046004 	addi	r4,r4,4480
   2068c:	0036e300 	call	36e30 <alt_avalon_spi_command>
		*pio1 = SS_RESET_7790;
   20690:	d0a00117 	ldw	r2,-32764(gp)
   20694:	00c000c4 	movi	r3,3
   20698:	10c00015 	stw	r3,0(r2)
	/*Serial.print("ADC Register ");		//Debug serial prints
	Serial.print(ui8address);
	Serial.println("Written");
	Serial.print("With Register Value ");
	Serial.println(ui8value);*/
}
   2069c:	00001b06 	br	2070c <writeAd7790+0xfc>
		alt_u8 data_send[4] = {ui8value, ui8value, ui8value, ui8value};
   206a0:	e0bffc03 	ldbu	r2,-16(fp)
   206a4:	e0bffe45 	stb	r2,-7(fp)
   206a8:	e0bffc03 	ldbu	r2,-16(fp)
   206ac:	e0bffe85 	stb	r2,-6(fp)
   206b0:	e0bffc03 	ldbu	r2,-16(fp)
   206b4:	e0bffec5 	stb	r2,-5(fp)
   206b8:	e0bffc03 	ldbu	r2,-16(fp)
   206bc:	e0bfff05 	stb	r2,-4(fp)
		alt_u8 data_recv[1]= {DUMMY_DATA};
   206c0:	00bfea84 	movi	r2,-86
   206c4:	e0bffe05 	stb	r2,-8(fp)
		*pio1 = SS_ACTIVE_7790;
   206c8:	d0a00117 	ldw	r2,-32764(gp)
   206cc:	00c00044 	movi	r3,1
   206d0:	10c00015 	stw	r3,0(r2)
		alt_avalon_spi_command(SPI_BASE, AD7790SS, 4, data_send, 0, data_recv, 0);
   206d4:	e0fffe44 	addi	r3,fp,-7
   206d8:	d8000215 	stw	zero,8(sp)
   206dc:	e0bffe04 	addi	r2,fp,-8
   206e0:	d8800115 	stw	r2,4(sp)
   206e4:	d8000015 	stw	zero,0(sp)
   206e8:	180f883a 	mov	r7,r3
   206ec:	01800104 	movi	r6,4
   206f0:	01400044 	movi	r5,1
   206f4:	01000134 	movhi	r4,4
   206f8:	21046004 	addi	r4,r4,4480
   206fc:	0036e300 	call	36e30 <alt_avalon_spi_command>
		*pio1 = SS_RESET_7790;
   20700:	d0a00117 	ldw	r2,-32764(gp)
   20704:	00c000c4 	movi	r3,3
   20708:	10c00015 	stw	r3,0(r2)
}
   2070c:	0001883a 	nop
   20710:	e037883a 	mov	sp,fp
   20714:	dfc00117 	ldw	ra,4(sp)
   20718:	df000017 	ldw	fp,0(sp)
   2071c:	dec00204 	addi	sp,sp,8
   20720:	f800283a 	ret

00020724 <Write32_Data>:
#define SLEEP_TIME 250  //us
#define ACK_SLEEP_TIME 250 //us
#define TRUE 1
#define FALSE 0

bool Write32_Data(alt_32 base_address, alt_32 offset_address, alt_32 Data){
   20724:	defffb04 	addi	sp,sp,-20
   20728:	df000415 	stw	fp,16(sp)
   2072c:	df000404 	addi	fp,sp,16
   20730:	e13ffe15 	stw	r4,-8(fp)
   20734:	e17ffd15 	stw	r5,-12(fp)
   20738:	e1bffc15 	stw	r6,-16(fp)
	bool bPass;
    IOWR(base_address, offset_address,Data);
   2073c:	e0bffd17 	ldw	r2,-12(fp)
   20740:	100490ba 	slli	r2,r2,2
   20744:	1007883a 	mov	r3,r2
   20748:	e0bffe17 	ldw	r2,-8(fp)
   2074c:	1885883a 	add	r2,r3,r2
   20750:	1007883a 	mov	r3,r2
   20754:	e0bffc17 	ldw	r2,-16(fp)
   20758:	18800035 	stwio	r2,0(r3)
    bPass=TRUE;
   2075c:	00800044 	movi	r2,1
   20760:	e0bfffc5 	stb	r2,-1(fp)
    return bPass;
   20764:	e0bfffc3 	ldbu	r2,-1(fp)
}
   20768:	e037883a 	mov	sp,fp
   2076c:	df000017 	ldw	fp,0(sp)
   20770:	dec00104 	addi	sp,sp,4
   20774:	f800283a 	ret

00020778 <Read32_Data>:



bool  Read32_Data(alt_32 base_address, alt_32 offset_address, alt_32 *pData32){
   20778:	defffb04 	addi	sp,sp,-20
   2077c:	df000415 	stw	fp,16(sp)
   20780:	df000404 	addi	fp,sp,16
   20784:	e13ffe15 	stw	r4,-8(fp)
   20788:	e17ffd15 	stw	r5,-12(fp)
   2078c:	e1bffc15 	stw	r6,-16(fp)
	bool bPass;
	*pData32 =IORD(base_address ,offset_address  );
   20790:	e0bffd17 	ldw	r2,-12(fp)
   20794:	100490ba 	slli	r2,r2,2
   20798:	1007883a 	mov	r3,r2
   2079c:	e0bffe17 	ldw	r2,-8(fp)
   207a0:	1885883a 	add	r2,r3,r2
   207a4:	10c00037 	ldwio	r3,0(r2)
   207a8:	e0bffc17 	ldw	r2,-16(fp)
   207ac:	10c00015 	stw	r3,0(r2)
	bPass=TRUE;
   207b0:	00800044 	movi	r2,1
   207b4:	e0bfffc5 	stb	r2,-1(fp)
    return bPass;
   207b8:	e0bfffc3 	ldbu	r2,-1(fp)
}
   207bc:	e037883a 	mov	sp,fp
   207c0:	df000017 	ldw	fp,0(sp)
   207c4:	dec00104 	addi	sp,sp,4
   207c8:	f800283a 	ret

000207cc <oc_i2c_init>:

bool oc_i2c_init(alt_32 i2c_base){
   207cc:	defffa04 	addi	sp,sp,-24
   207d0:	dfc00515 	stw	ra,20(sp)
   207d4:	df000415 	stw	fp,16(sp)
   207d8:	df000404 	addi	fp,sp,16
   207dc:	e13ffc15 	stw	r4,-16(fp)
	bool bSuccess;
	const alt_32 ref_clk = 50*1000*1000; // 50MHz
   207e0:	0080bef4 	movhi	r2,763
   207e4:	10bc2004 	addi	r2,r2,-3968
   207e8:	e0bfff15 	stw	r2,-4(fp)
	const alt_32 i2c_clk = 400*1000; // 400KHz
   207ec:	008001b4 	movhi	r2,6
   207f0:	1086a004 	addi	r2,r2,6784
   207f4:	e0bffe15 	stw	r2,-8(fp)

	bSuccess = oc_i2c_init_ex(i2c_base, ref_clk, i2c_clk);
   207f8:	e1bffe17 	ldw	r6,-8(fp)
   207fc:	e17fff17 	ldw	r5,-4(fp)
   20800:	e13ffc17 	ldw	r4,-16(fp)
   20804:	00208240 	call	20824 <oc_i2c_init_ex>
   20808:	e0bffdc5 	stb	r2,-9(fp)

	return bSuccess;
   2080c:	e0bffdc3 	ldbu	r2,-9(fp)
}
   20810:	e037883a 	mov	sp,fp
   20814:	dfc00117 	ldw	ra,4(sp)
   20818:	df000017 	ldw	fp,0(sp)
   2081c:	dec00204 	addi	sp,sp,8
   20820:	f800283a 	ret

00020824 <oc_i2c_init_ex>:

bool  oc_i2c_init_ex(alt_32 i2c_base, alt_32 ref_clk, alt_32 i2c_clk)
{
   20824:	defff704 	addi	sp,sp,-36
   20828:	dfc00815 	stw	ra,32(sp)
   2082c:	df000715 	stw	fp,28(sp)
   20830:	df000704 	addi	fp,sp,28
   20834:	e13ffb15 	stw	r4,-20(fp)
   20838:	e17ffa15 	stw	r5,-24(fp)
   2083c:	e1bff915 	stw	r6,-28(fp)
	bool bSuccess=TRUE;
   20840:	00800044 	movi	r2,1
   20844:	e0bfffc5 	stb	r2,-1(fp)
	alt_32 read_data;
	alt_32 prescale;
	alt_u8 prescale_high;
	alt_u8 prescale_low;
	const alt_u8 ControlValue = 0x80;
   20848:	00bfe004 	movi	r2,-128
   2084c:	e0bfff85 	stb	r2,-2(fp)

    // I2c sysclock =50M hz
	// i2c scl max 400k
	//scl =sysclock/(prescale*5)
	prescale = (ref_clk/(5*i2c_clk))-1;
   20850:	e0fff917 	ldw	r3,-28(fp)
   20854:	1805883a 	mov	r2,r3
   20858:	100490ba 	slli	r2,r2,2
   2085c:	10c5883a 	add	r2,r2,r3
   20860:	100b883a 	mov	r5,r2
   20864:	e13ffa17 	ldw	r4,-24(fp)
   20868:	00269980 	call	26998 <__divsi3>
   2086c:	10bfffc4 	addi	r2,r2,-1
   20870:	e0bffe15 	stw	r2,-8(fp)
	prescale_low = prescale & 0xFF;
   20874:	e0bffe17 	ldw	r2,-8(fp)
   20878:	e0bffdc5 	stb	r2,-9(fp)
	prescale_high = (prescale >> 8) & 0xFF;
   2087c:	e0bffe17 	ldw	r2,-8(fp)
   20880:	1005d23a 	srai	r2,r2,8
   20884:	e0bffd85 	stb	r2,-10(fp)

   IOWR(i2c_base, 0, prescale_low);//write low byte of  prescale (reg 0)
   20888:	e0bffb17 	ldw	r2,-20(fp)
   2088c:	e0fffdc3 	ldbu	r3,-9(fp)
   20890:	10c00035 	stwio	r3,0(r2)
   IOWR(i2c_base, 1, prescale_high);//write high byte of prescale (reg 1)
   20894:	e0bffb17 	ldw	r2,-20(fp)
   20898:	10800104 	addi	r2,r2,4
   2089c:	1007883a 	mov	r3,r2
   208a0:	e0bffd83 	ldbu	r2,-10(fp)
   208a4:	18800035 	stwio	r2,0(r3)

   //enable the I2C core, but disable the IRQ
   IOWR( i2c_base, 2, ControlValue);
   208a8:	e0bffb17 	ldw	r2,-20(fp)
   208ac:	10800204 	addi	r2,r2,8
   208b0:	1007883a 	mov	r3,r2
   208b4:	e0bfff83 	ldbu	r2,-2(fp)
   208b8:	18800035 	stwio	r2,0(r3)


    // check prescale low byte
    if (bSuccess){
   208bc:	e0bfffc3 	ldbu	r2,-1(fp)
   208c0:	10000826 	beq	r2,zero,208e4 <oc_i2c_init_ex+0xc0>
    	read_data =IORD(i2c_base, 0);
   208c4:	e0bffb17 	ldw	r2,-20(fp)
   208c8:	10800037 	ldwio	r2,0(r2)
   208cc:	e0bffc15 	stw	r2,-16(fp)
        if( (read_data & 0x00ff) != prescale_low ){
   208d0:	e0bffc17 	ldw	r2,-16(fp)
   208d4:	10c03fcc 	andi	r3,r2,255
   208d8:	e0bffdc3 	ldbu	r2,-9(fp)
   208dc:	18800126 	beq	r3,r2,208e4 <oc_i2c_init_ex+0xc0>
            bSuccess = FALSE;
   208e0:	e03fffc5 	stb	zero,-1(fp)
        }
    }

    // check prescale high byte
    if (bSuccess){
   208e4:	e0bfffc3 	ldbu	r2,-1(fp)
   208e8:	10000926 	beq	r2,zero,20910 <oc_i2c_init_ex+0xec>
    	read_data =IORD(i2c_base, 1);
   208ec:	e0bffb17 	ldw	r2,-20(fp)
   208f0:	10800104 	addi	r2,r2,4
   208f4:	10800037 	ldwio	r2,0(r2)
   208f8:	e0bffc15 	stw	r2,-16(fp)
        if( (read_data & 0x00ff) != prescale_high ){
   208fc:	e0bffc17 	ldw	r2,-16(fp)
   20900:	10c03fcc 	andi	r3,r2,255
   20904:	e0bffd83 	ldbu	r2,-10(fp)
   20908:	18800126 	beq	r3,r2,20910 <oc_i2c_init_ex+0xec>
            bSuccess = FALSE;
   2090c:	e03fffc5 	stb	zero,-1(fp)
        }
    }

    // check control
    if (bSuccess){
   20910:	e0bfffc3 	ldbu	r2,-1(fp)
   20914:	10000926 	beq	r2,zero,2093c <oc_i2c_init_ex+0x118>
    	read_data =IORD(i2c_base, 2);
   20918:	e0bffb17 	ldw	r2,-20(fp)
   2091c:	10800204 	addi	r2,r2,8
   20920:	10800037 	ldwio	r2,0(r2)
   20924:	e0bffc15 	stw	r2,-16(fp)
        if( (read_data & 0x00ff) != ControlValue ){
   20928:	e0bffc17 	ldw	r2,-16(fp)
   2092c:	10c03fcc 	andi	r3,r2,255
   20930:	e0bfff83 	ldbu	r2,-2(fp)
   20934:	18800126 	beq	r3,r2,2093c <oc_i2c_init_ex+0x118>
            bSuccess = FALSE;
   20938:	e03fffc5 	stb	zero,-1(fp)
        }
    }

   if (bSuccess)
   2093c:	e0bfffc3 	ldbu	r2,-1(fp)
   20940:	10000426 	beq	r2,zero,20954 <oc_i2c_init_ex+0x130>
       printf("\nI2C core is enabled! \r\n");
   20944:	01000134 	movhi	r4,4
   20948:	21206004 	addi	r4,r4,-32384
   2094c:	002aa480 	call	2aa48 <puts>
   20950:	00000306 	br	20960 <oc_i2c_init_ex+0x13c>
   else
       printf("\nI2C core is not enabled successfully! \r\n");
   20954:	01000134 	movhi	r4,4
   20958:	21206604 	addi	r4,r4,-32360
   2095c:	002aa480 	call	2aa48 <puts>

   return bSuccess;
   20960:	e0bfffc3 	ldbu	r2,-1(fp)

}
   20964:	e037883a 	mov	sp,fp
   20968:	dfc00117 	ldw	ra,4(sp)
   2096c:	df000017 	ldw	fp,0(sp)
   20970:	dec00204 	addi	sp,sp,8
   20974:	f800283a 	ret

00020978 <oc_i2c_uninit>:

bool oc_i2c_uninit(alt_32 i2c_base)
{
   20978:	defffb04 	addi	sp,sp,-20
   2097c:	dfc00415 	stw	ra,16(sp)
   20980:	df000315 	stw	fp,12(sp)
   20984:	df000304 	addi	fp,sp,12
   20988:	e13ffd15 	stw	r4,-12(fp)
	bool bSuccess=TRUE;
   2098c:	00800044 	movi	r2,1
   20990:	e0bfffc5 	stb	r2,-1(fp)
	alt_32 read_data;
	const alt_u8 ControlValue = 0x00;
   20994:	e03fff85 	stb	zero,-2(fp)

    IOWR( i2c_base, 2, ControlValue);
   20998:	e0bffd17 	ldw	r2,-12(fp)
   2099c:	10800204 	addi	r2,r2,8
   209a0:	1007883a 	mov	r3,r2
   209a4:	e0bfff83 	ldbu	r2,-2(fp)
   209a8:	18800035 	stwio	r2,0(r3)
   	read_data =IORD(i2c_base, 2);
   209ac:	e0bffd17 	ldw	r2,-12(fp)
   209b0:	10800204 	addi	r2,r2,8
   209b4:	10800037 	ldwio	r2,0(r2)
   209b8:	e0bffe15 	stw	r2,-8(fp)
	if( (read_data & 0x00ff) != ControlValue ){
   209bc:	e0bffe17 	ldw	r2,-8(fp)
   209c0:	10c03fcc 	andi	r3,r2,255
   209c4:	e0bfff83 	ldbu	r2,-2(fp)
   209c8:	18800126 	beq	r3,r2,209d0 <oc_i2c_uninit+0x58>
            bSuccess = FALSE;
   209cc:	e03fffc5 	stb	zero,-1(fp)
    }

   if (bSuccess)
   209d0:	e0bfffc3 	ldbu	r2,-1(fp)
   209d4:	10000426 	beq	r2,zero,209e8 <oc_i2c_uninit+0x70>
       printf("\nI2C core  is disabled! \r\n");
   209d8:	01000134 	movhi	r4,4
   209dc:	21207104 	addi	r4,r4,-32316
   209e0:	002aa480 	call	2aa48 <puts>
   209e4:	00000306 	br	209f4 <oc_i2c_uninit+0x7c>
   else
       printf("\nI2C core is failed to disable! \r\n");
   209e8:	01000134 	movhi	r4,4
   209ec:	21207804 	addi	r4,r4,-32288
   209f0:	002aa480 	call	2aa48 <puts>

   return bSuccess;
   209f4:	e0bfffc3 	ldbu	r2,-1(fp)

}
   209f8:	e037883a 	mov	sp,fp
   209fc:	dfc00117 	ldw	ra,4(sp)
   20a00:	df000017 	ldw	fp,0(sp)
   20a04:	dec00204 	addi	sp,sp,8
   20a08:	f800283a 	ret

00020a0c <ACK_single_check>:




bool  ACK_single_check(alt_32 i2c_base)
{
   20a0c:	defffb04 	addi	sp,sp,-20
   20a10:	dfc00415 	stw	ra,16(sp)
   20a14:	df000315 	stw	fp,12(sp)
   20a18:	df000304 	addi	fp,sp,12
   20a1c:	e13ffd15 	stw	r4,-12(fp)
	bool bSuccess=TRUE;
   20a20:	00800044 	movi	r2,1
   20a24:	e0bfffc5 	stb	r2,-1(fp)
	alt_32 read_data;

    usleep(ACK_SLEEP_TIME);
   20a28:	01003e84 	movi	r4,250
   20a2c:	00361680 	call	36168 <usleep>
    read_data =IORD(i2c_base, 4);
   20a30:	e0bffd17 	ldw	r2,-12(fp)
   20a34:	10800404 	addi	r2,r2,16
   20a38:	10800037 	ldwio	r2,0(r2)
   20a3c:	e0bffe15 	stw	r2,-8(fp)
    if(read_data & 0x02)
   20a40:	e0bffe17 	ldw	r2,-8(fp)
   20a44:	1080008c 	andi	r2,r2,2
   20a48:	10000126 	beq	r2,zero,20a50 <ACK_single_check+0x44>
            bSuccess = FALSE;
   20a4c:	e03fffc5 	stb	zero,-1(fp)
     if (bSuccess){
   20a50:	e0bfffc3 	ldbu	r2,-1(fp)
   20a54:	10000a26 	beq	r2,zero,20a80 <ACK_single_check+0x74>
            usleep(ACK_SLEEP_TIME);
   20a58:	01003e84 	movi	r4,250
   20a5c:	00361680 	call	36168 <usleep>
            read_data =IORD(i2c_base, 4);
   20a60:	e0bffd17 	ldw	r2,-12(fp)
   20a64:	10800404 	addi	r2,r2,16
   20a68:	10800037 	ldwio	r2,0(r2)
   20a6c:	e0bffe15 	stw	r2,-8(fp)
                if(read_data & 0x80)
   20a70:	e0bffe17 	ldw	r2,-8(fp)
   20a74:	1080200c 	andi	r2,r2,128
   20a78:	10000126 	beq	r2,zero,20a80 <ACK_single_check+0x74>
                    bSuccess = FALSE;
   20a7c:	e03fffc5 	stb	zero,-1(fp)
     }
    return bSuccess;
   20a80:	e0bfffc3 	ldbu	r2,-1(fp)
}
   20a84:	e037883a 	mov	sp,fp
   20a88:	dfc00117 	ldw	ra,4(sp)
   20a8c:	df000017 	ldw	fp,0(sp)
   20a90:	dec00204 	addi	sp,sp,8
   20a94:	f800283a 	ret

00020a98 <ACK_check>:


bool  ACK_check(alt_32 i2c_base){
   20a98:	defffb04 	addi	sp,sp,-20
   20a9c:	dfc00415 	stw	ra,16(sp)
   20aa0:	df000315 	stw	fp,12(sp)
   20aa4:	df000304 	addi	fp,sp,12
   20aa8:	e13ffd15 	stw	r4,-12(fp)
    bool bSuccess = FALSE;
   20aac:	e03fffc5 	stb	zero,-1(fp)
    int i=0;
   20ab0:	e03ffe15 	stw	zero,-8(fp)

    while(!bSuccess && i++ < 10){
   20ab4:	00000306 	br	20ac4 <ACK_check+0x2c>
        bSuccess = ACK_single_check(i2c_base);
   20ab8:	e13ffd17 	ldw	r4,-12(fp)
   20abc:	0020a0c0 	call	20a0c <ACK_single_check>
   20ac0:	e0bfffc5 	stb	r2,-1(fp)
    while(!bSuccess && i++ < 10){
   20ac4:	e0bfffc3 	ldbu	r2,-1(fp)
   20ac8:	1080005c 	xori	r2,r2,1
   20acc:	10803fcc 	andi	r2,r2,255
   20ad0:	10000526 	beq	r2,zero,20ae8 <ACK_check+0x50>
   20ad4:	e0bffe17 	ldw	r2,-8(fp)
   20ad8:	10c00044 	addi	r3,r2,1
   20adc:	e0fffe15 	stw	r3,-8(fp)
   20ae0:	10800290 	cmplti	r2,r2,10
   20ae4:	103ff41e 	bne	r2,zero,20ab8 <ACK_check+0x20>
      //  if (!bSuccess)
    //	printf("no ack2 !!!!!!!!!!!!!!!!!!!!, i=%d\r\n", i);

    }

    return bSuccess;
   20ae8:	e0bfffc3 	ldbu	r2,-1(fp)
}
   20aec:	e037883a 	mov	sp,fp
   20af0:	dfc00117 	ldw	ra,4(sp)
   20af4:	df000017 	ldw	fp,0(sp)
   20af8:	dec00204 	addi	sp,sp,8
   20afc:	f800283a 	ret

00020b00 <OC_I2C_Write>:

bool  OC_I2C_Write(alt_32 i2c_base,alt_u8 device_address,alt_u8 sub_address, alt_u8 *pData, int nWriteLength)
{
   20b00:	defff904 	addi	sp,sp,-28
   20b04:	dfc00615 	stw	ra,24(sp)
   20b08:	df000515 	stw	fp,20(sp)
   20b0c:	df000504 	addi	fp,sp,20
   20b10:	e13ffe15 	stw	r4,-8(fp)
   20b14:	2805883a 	mov	r2,r5
   20b18:	3007883a 	mov	r3,r6
   20b1c:	e1fffb15 	stw	r7,-20(fp)
   20b20:	e0bffd05 	stb	r2,-12(fp)
   20b24:	1805883a 	mov	r2,r3
   20b28:	e0bffc05 	stb	r2,-16(fp)
    //DWORD reg_data = 0x0;
    int i;

   //set the tx reg audio chip dev address with write bit
   if (!Write32_Data( i2c_base, 3,device_address)){
   20b2c:	e0bffd03 	ldbu	r2,-12(fp)
   20b30:	100d883a 	mov	r6,r2
   20b34:	014000c4 	movi	r5,3
   20b38:	e13ffe17 	ldw	r4,-8(fp)
   20b3c:	00207240 	call	20724 <Write32_Data>
   20b40:	1080005c 	xori	r2,r2,1
   20b44:	10803fcc 	andi	r2,r2,255
   20b48:	10000526 	beq	r2,zero,20b60 <OC_I2C_Write+0x60>
       printf("OC_I2C_Write error[0]\r\n");
   20b4c:	01000134 	movhi	r4,4
   20b50:	21208104 	addi	r4,r4,-32252
   20b54:	002aa480 	call	2aa48 <puts>
       return FALSE;
   20b58:	0005883a 	mov	r2,zero
   20b5c:	00007706 	br	20d3c <OC_I2C_Write+0x23c>
   }
   //set STA and WR bits(bit7 and bit4)
   if (!Write32_Data( i2c_base, 4,0x90)){
   20b60:	01802404 	movi	r6,144
   20b64:	01400104 	movi	r5,4
   20b68:	e13ffe17 	ldw	r4,-8(fp)
   20b6c:	00207240 	call	20724 <Write32_Data>
   20b70:	1080005c 	xori	r2,r2,1
   20b74:	10803fcc 	andi	r2,r2,255
   20b78:	10000526 	beq	r2,zero,20b90 <OC_I2C_Write+0x90>
       printf("OC_I2C_Write error[1]\r\n");
   20b7c:	01000134 	movhi	r4,4
   20b80:	21208704 	addi	r4,r4,-32228
   20b84:	002aa480 	call	2aa48 <puts>
       return FALSE;
   20b88:	0005883a 	mov	r2,zero
   20b8c:	00006b06 	br	20d3c <OC_I2C_Write+0x23c>
   }

   //wait TIP bit go to 0 to end Tx
    if(!ACK_check( i2c_base)){
   20b90:	e13ffe17 	ldw	r4,-8(fp)
   20b94:	0020a980 	call	20a98 <ACK_check>
   20b98:	1080005c 	xori	r2,r2,1
   20b9c:	10803fcc 	andi	r2,r2,255
   20ba0:	10000526 	beq	r2,zero,20bb8 <OC_I2C_Write+0xb8>
        printf("OC_I2C_Write error[2]\r\n");
   20ba4:	01000134 	movhi	r4,4
   20ba8:	21208d04 	addi	r4,r4,-32204
   20bac:	002aa480 	call	2aa48 <puts>
        return FALSE;
   20bb0:	0005883a 	mov	r2,zero
   20bb4:	00006106 	br	20d3c <OC_I2C_Write+0x23c>
    }
  // printf("\n receive ACK-device address! \n");

   //set the txr reg data with reg address + 1 data MSB
   if (!Write32_Data( i2c_base, 3,sub_address)){
   20bb8:	e0bffc03 	ldbu	r2,-16(fp)
   20bbc:	100d883a 	mov	r6,r2
   20bc0:	014000c4 	movi	r5,3
   20bc4:	e13ffe17 	ldw	r4,-8(fp)
   20bc8:	00207240 	call	20724 <Write32_Data>
   20bcc:	1080005c 	xori	r2,r2,1
   20bd0:	10803fcc 	andi	r2,r2,255
   20bd4:	10000526 	beq	r2,zero,20bec <OC_I2C_Write+0xec>
       printf("OC_I2C_Write error[3]\r\n");
   20bd8:	01000134 	movhi	r4,4
   20bdc:	21209304 	addi	r4,r4,-32180
   20be0:	002aa480 	call	2aa48 <puts>
       return FALSE;
   20be4:	0005883a 	mov	r2,zero
   20be8:	00005406 	br	20d3c <OC_I2C_Write+0x23c>
   }

   //set WR bits(bit4)
    if (!Write32_Data( i2c_base, 4,0x10)){
   20bec:	01800404 	movi	r6,16
   20bf0:	01400104 	movi	r5,4
   20bf4:	e13ffe17 	ldw	r4,-8(fp)
   20bf8:	00207240 	call	20724 <Write32_Data>
   20bfc:	1080005c 	xori	r2,r2,1
   20c00:	10803fcc 	andi	r2,r2,255
   20c04:	10000526 	beq	r2,zero,20c1c <OC_I2C_Write+0x11c>
        printf("OC_I2C_Write error[4]\r\n");
   20c08:	01000134 	movhi	r4,4
   20c0c:	21209904 	addi	r4,r4,-32156
   20c10:	002aa480 	call	2aa48 <puts>
        return FALSE;
   20c14:	0005883a 	mov	r2,zero
   20c18:	00004806 	br	20d3c <OC_I2C_Write+0x23c>
    }

   //wait TIP bit go to 0 to end Tx
    if(!ACK_check( i2c_base)){
   20c1c:	e13ffe17 	ldw	r4,-8(fp)
   20c20:	0020a980 	call	20a98 <ACK_check>
   20c24:	1080005c 	xori	r2,r2,1
   20c28:	10803fcc 	andi	r2,r2,255
   20c2c:	10000526 	beq	r2,zero,20c44 <OC_I2C_Write+0x144>
        printf("OC_I2C_Write error[5]\r\n");
   20c30:	01000134 	movhi	r4,4
   20c34:	21209f04 	addi	r4,r4,-32132
   20c38:	002aa480 	call	2aa48 <puts>
        return FALSE;
   20c3c:	0005883a 	mov	r2,zero
   20c40:	00003e06 	br	20d3c <OC_I2C_Write+0x23c>
    }
 //  printf("\n receive ACK-reg address! \n");

#if 1
//        for( i=nWriteLength-1;i>=0;i--){
        for( i=0;i<nWriteLength;i++){
   20c44:	e03fff15 	stw	zero,-4(fp)
   20c48:	00002a06 	br	20cf4 <OC_I2C_Write+0x1f4>
        //set the txr reg data with the data
          if (!Write32_Data( i2c_base, 3,*(pData+i))){
   20c4c:	e0bfff17 	ldw	r2,-4(fp)
   20c50:	e0fffb17 	ldw	r3,-20(fp)
   20c54:	1885883a 	add	r2,r3,r2
   20c58:	10800003 	ldbu	r2,0(r2)
   20c5c:	10803fcc 	andi	r2,r2,255
   20c60:	100d883a 	mov	r6,r2
   20c64:	014000c4 	movi	r5,3
   20c68:	e13ffe17 	ldw	r4,-8(fp)
   20c6c:	00207240 	call	20724 <Write32_Data>
   20c70:	1080005c 	xori	r2,r2,1
   20c74:	10803fcc 	andi	r2,r2,255
   20c78:	10000526 	beq	r2,zero,20c90 <OC_I2C_Write+0x190>
              printf("OC_I2C_Write error[6]\r\n");
   20c7c:	01000134 	movhi	r4,4
   20c80:	2120a504 	addi	r4,r4,-32108
   20c84:	002aa480 	call	2aa48 <puts>
              return FALSE;
   20c88:	0005883a 	mov	r2,zero
   20c8c:	00002b06 	br	20d3c <OC_I2C_Write+0x23c>
          }

        //set STO and WR bits(bit7 and bit4)
         if (!Write32_Data( i2c_base, 4,0x10)){
   20c90:	01800404 	movi	r6,16
   20c94:	01400104 	movi	r5,4
   20c98:	e13ffe17 	ldw	r4,-8(fp)
   20c9c:	00207240 	call	20724 <Write32_Data>
   20ca0:	1080005c 	xori	r2,r2,1
   20ca4:	10803fcc 	andi	r2,r2,255
   20ca8:	10000526 	beq	r2,zero,20cc0 <OC_I2C_Write+0x1c0>
             printf("OC_I2C_Write error[7]\r\n");
   20cac:	01000134 	movhi	r4,4
   20cb0:	2120ab04 	addi	r4,r4,-32084
   20cb4:	002aa480 	call	2aa48 <puts>
              return FALSE;
   20cb8:	0005883a 	mov	r2,zero
   20cbc:	00001f06 	br	20d3c <OC_I2C_Write+0x23c>
         }

         //wait TIP bit go to 0 to end Tx
          if(!ACK_check( i2c_base)){
   20cc0:	e13ffe17 	ldw	r4,-8(fp)
   20cc4:	0020a980 	call	20a98 <ACK_check>
   20cc8:	1080005c 	xori	r2,r2,1
   20ccc:	10803fcc 	andi	r2,r2,255
   20cd0:	10000526 	beq	r2,zero,20ce8 <OC_I2C_Write+0x1e8>
              printf("OC_I2C_Write error[8]\r\n");
   20cd4:	01000134 	movhi	r4,4
   20cd8:	2120b104 	addi	r4,r4,-32060
   20cdc:	002aa480 	call	2aa48 <puts>
              return FALSE;
   20ce0:	0005883a 	mov	r2,zero
   20ce4:	00001506 	br	20d3c <OC_I2C_Write+0x23c>
        for( i=0;i<nWriteLength;i++){
   20ce8:	e0bfff17 	ldw	r2,-4(fp)
   20cec:	10800044 	addi	r2,r2,1
   20cf0:	e0bfff15 	stw	r2,-4(fp)
   20cf4:	e0ffff17 	ldw	r3,-4(fp)
   20cf8:	e0800217 	ldw	r2,8(fp)
   20cfc:	18bfd316 	blt	r3,r2,20c4c <OC_I2C_Write+0x14c>
   //wait TIP bit go to 0 to end Tx
    if(!ACK_check( i2c_base))
        return false;
#endif

     if (!Write32_Data( i2c_base, 4,0x40)){
   20d00:	01801004 	movi	r6,64
   20d04:	01400104 	movi	r5,4
   20d08:	e13ffe17 	ldw	r4,-8(fp)
   20d0c:	00207240 	call	20724 <Write32_Data>
   20d10:	1080005c 	xori	r2,r2,1
   20d14:	10803fcc 	andi	r2,r2,255
   20d18:	10000526 	beq	r2,zero,20d30 <OC_I2C_Write+0x230>
         printf("OC_I2C_Write error[9]\r\n");
   20d1c:	01000134 	movhi	r4,4
   20d20:	2120b704 	addi	r4,r4,-32036
   20d24:	002aa480 	call	2aa48 <puts>
         return FALSE;
   20d28:	0005883a 	mov	r2,zero
   20d2c:	00000306 	br	20d3c <OC_I2C_Write+0x23c>
     }
         //Sleep(10);
     //OS_msleep(1);
     usleep(SLEEP_TIME);
   20d30:	01003e84 	movi	r4,250
   20d34:	00361680 	call	36168 <usleep>

  // printf("\n receive ACK-data! \n");

     return TRUE;
   20d38:	00800044 	movi	r2,1

}
   20d3c:	e037883a 	mov	sp,fp
   20d40:	dfc00117 	ldw	ra,4(sp)
   20d44:	df000017 	ldw	fp,0(sp)
   20d48:	dec00204 	addi	sp,sp,8
   20d4c:	f800283a 	ret

00020d50 <ACK_judge_for_read>:


bool ACK_judge_for_read(alt_32 i2c_base)
{
   20d50:	defffb04 	addi	sp,sp,-20
   20d54:	dfc00415 	stw	ra,16(sp)
   20d58:	df000315 	stw	fp,12(sp)
   20d5c:	df000304 	addi	fp,sp,12
   20d60:	e13ffd15 	stw	r4,-12(fp)
	bool bSuccess;
    alt_32 this_data;

   // OS_msleep( SLEEP_TIME );
     usleep(ACK_SLEEP_TIME);
   20d64:	01003e84 	movi	r4,250
   20d68:	00361680 	call	36168 <usleep>
    //   while(this_data & 0x02)
//   {
//      this_data =  Read32_Data ( hPCIe, i2c_base, 4);
//   }
    bSuccess =  Read32_Data ( i2c_base, 4, &this_data);
   20d6c:	e0bffe04 	addi	r2,fp,-8
   20d70:	100d883a 	mov	r6,r2
   20d74:	01400104 	movi	r5,4
   20d78:	e13ffd17 	ldw	r4,-12(fp)
   20d7c:	00207780 	call	20778 <Read32_Data>
   20d80:	e0bfffc5 	stb	r2,-1(fp)
    if (bSuccess){
   20d84:	e0bfffc3 	ldbu	r2,-1(fp)
   20d88:	10000426 	beq	r2,zero,20d9c <ACK_judge_for_read+0x4c>
        if(this_data & 0x02)
   20d8c:	e0bffe17 	ldw	r2,-8(fp)
   20d90:	1080008c 	andi	r2,r2,2
   20d94:	10000126 	beq	r2,zero,20d9c <ACK_judge_for_read+0x4c>
            bSuccess = FALSE;
   20d98:	e03fffc5 	stb	zero,-1(fp)
    }
   //wait the rx ACK signal 0-valid

    return bSuccess;
   20d9c:	e0bfffc3 	ldbu	r2,-1(fp)

}
   20da0:	e037883a 	mov	sp,fp
   20da4:	dfc00117 	ldw	ra,4(sp)
   20da8:	df000017 	ldw	fp,0(sp)
   20dac:	dec00204 	addi	sp,sp,8
   20db0:	f800283a 	ret

00020db4 <OC_I2C_Read>:





bool  OC_I2C_Read(alt_32 i2c_base,alt_u8 device_address,alt_u8 sub_address, alt_u8 *pData8, int nReadLength){
   20db4:	defff804 	addi	sp,sp,-32
   20db8:	dfc00715 	stw	ra,28(sp)
   20dbc:	df000615 	stw	fp,24(sp)
   20dc0:	df000604 	addi	fp,sp,24
   20dc4:	e13ffd15 	stw	r4,-12(fp)
   20dc8:	2805883a 	mov	r2,r5
   20dcc:	3007883a 	mov	r3,r6
   20dd0:	e1fffa15 	stw	r7,-24(fp)
   20dd4:	e0bffc05 	stb	r2,-16(fp)
   20dd8:	1805883a 	mov	r2,r3
   20ddc:	e0bffb05 	stb	r2,-20(fp)
    //BYTE data = 0x0;
    alt_32 Data32;
    int i;

   //set the tx reg audio chip dev address with write bit
   IOWR( i2c_base, 3,device_address);
   20de0:	e0bffd17 	ldw	r2,-12(fp)
   20de4:	10800304 	addi	r2,r2,12
   20de8:	1007883a 	mov	r3,r2
   20dec:	e0bffc03 	ldbu	r2,-16(fp)
   20df0:	18800035 	stwio	r2,0(r3)
   //set STA and WR bits(bit7 and bit4)
   IOWR( i2c_base, 4,0x90);
   20df4:	e0bffd17 	ldw	r2,-12(fp)
   20df8:	10800404 	addi	r2,r2,16
   20dfc:	1007883a 	mov	r3,r2
   20e00:	00802404 	movi	r2,144
   20e04:	18800035 	stwio	r2,0(r3)
   //wait TIP bit go to 0 to end Tx
   if (!ACK_check( i2c_base)){
   20e08:	e13ffd17 	ldw	r4,-12(fp)
   20e0c:	0020a980 	call	20a98 <ACK_check>
   20e10:	1080005c 	xori	r2,r2,1
   20e14:	10803fcc 	andi	r2,r2,255
   20e18:	10000526 	beq	r2,zero,20e30 <OC_I2C_Read+0x7c>
       printf("OC_I2C_Read error[2]\r\n");
   20e1c:	01000134 	movhi	r4,4
   20e20:	2120bd04 	addi	r4,r4,-32012
   20e24:	002aa480 	call	2aa48 <puts>
       return FALSE;
   20e28:	0005883a 	mov	r2,zero
   20e2c:	00005806 	br	20f90 <OC_I2C_Read+0x1dc>
   }
   IOWR(i2c_base, 3,sub_address);
   20e30:	e0bffd17 	ldw	r2,-12(fp)
   20e34:	10800304 	addi	r2,r2,12
   20e38:	1007883a 	mov	r3,r2
   20e3c:	e0bffb03 	ldbu	r2,-20(fp)
   20e40:	18800035 	stwio	r2,0(r3)

   //set WR bits(bit4)
   IOWR( i2c_base, 4,0x10);
   20e44:	e0bffd17 	ldw	r2,-12(fp)
   20e48:	10800404 	addi	r2,r2,16
   20e4c:	1007883a 	mov	r3,r2
   20e50:	00800404 	movi	r2,16
   20e54:	18800035 	stwio	r2,0(r3)
   //wait TIP bit go to 0 to end Tx
    if (!ACK_check( i2c_base)){
   20e58:	e13ffd17 	ldw	r4,-12(fp)
   20e5c:	0020a980 	call	20a98 <ACK_check>
   20e60:	1080005c 	xori	r2,r2,1
   20e64:	10803fcc 	andi	r2,r2,255
   20e68:	10000526 	beq	r2,zero,20e80 <OC_I2C_Read+0xcc>
        printf("OC_I2C_Read error[5]\r\n");
   20e6c:	01000134 	movhi	r4,4
   20e70:	2120c304 	addi	r4,r4,-31988
   20e74:	002aa480 	call	2aa48 <puts>
        return FALSE;
   20e78:	0005883a 	mov	r2,zero
   20e7c:	00004406 	br	20f90 <OC_I2C_Read+0x1dc>
  // printf("\n read receive ACK-reg address! \n");

   //read
    //set the tx reg audio chip dev address with read bit 1

    IOWR(i2c_base, 3,device_address|0x01);
   20e80:	e0bffd17 	ldw	r2,-12(fp)
   20e84:	10800304 	addi	r2,r2,12
   20e88:	1007883a 	mov	r3,r2
   20e8c:	e0bffc03 	ldbu	r2,-16(fp)
   20e90:	10800054 	ori	r2,r2,1
   20e94:	10803fcc 	andi	r2,r2,255
   20e98:	18800035 	stwio	r2,0(r3)

   //set STA and WR bits(bit7 and bit4)
    IOWR( i2c_base, 4,0x90);
   20e9c:	e0bffd17 	ldw	r2,-12(fp)
   20ea0:	10800404 	addi	r2,r2,16
   20ea4:	1007883a 	mov	r3,r2
   20ea8:	00802404 	movi	r2,144
   20eac:	18800035 	stwio	r2,0(r3)

   //wait TIP bit go to 0 to end Tx
    if (!ACK_check( i2c_base)){
   20eb0:	e13ffd17 	ldw	r4,-12(fp)
   20eb4:	0020a980 	call	20a98 <ACK_check>
   20eb8:	1080005c 	xori	r2,r2,1
   20ebc:	10803fcc 	andi	r2,r2,255
   20ec0:	10000526 	beq	r2,zero,20ed8 <OC_I2C_Read+0x124>
        printf("OC_I2C_Read error[8]\r\n");
   20ec4:	01000134 	movhi	r4,4
   20ec8:	2120c904 	addi	r4,r4,-31964
   20ecc:	002aa480 	call	2aa48 <puts>
        return FALSE;
   20ed0:	0005883a 	mov	r2,zero
   20ed4:	00002e06 	br	20f90 <OC_I2C_Read+0x1dc>
    }

    for(i=0;i<nReadLength;i++){
   20ed8:	e03fff15 	stw	zero,-4(fp)
   20edc:	00002106 	br	20f64 <OC_I2C_Read+0x1b0>
  // printf("\n read receive ACK-device address(read)! \n");
   //set the RD and ACK bit(bit5 and bit3)
    	IOWR( i2c_base, 4,((i+1) == nReadLength)?0x28:0x20);
   20ee0:	e0bffd17 	ldw	r2,-12(fp)
   20ee4:	10800404 	addi	r2,r2,16
   20ee8:	1009883a 	mov	r4,r2
   20eec:	e0bfff17 	ldw	r2,-4(fp)
   20ef0:	10800044 	addi	r2,r2,1
   20ef4:	e0c00217 	ldw	r3,8(fp)
   20ef8:	1880021e 	bne	r3,r2,20f04 <OC_I2C_Read+0x150>
   20efc:	00800a04 	movi	r2,40
   20f00:	00000106 	br	20f08 <OC_I2C_Read+0x154>
   20f04:	00800804 	movi	r2,32
   20f08:	20800035 	stwio	r2,0(r4)

        if (!ACK_judge_for_read( i2c_base)){
   20f0c:	e13ffd17 	ldw	r4,-12(fp)
   20f10:	0020d500 	call	20d50 <ACK_judge_for_read>
   20f14:	1080005c 	xori	r2,r2,1
   20f18:	10803fcc 	andi	r2,r2,255
   20f1c:	10000526 	beq	r2,zero,20f34 <OC_I2C_Read+0x180>
            printf("OC_I2C_Read error[10]\r\n");
   20f20:	01000134 	movhi	r4,4
   20f24:	2120cf04 	addi	r4,r4,-31940
   20f28:	002aa480 	call	2aa48 <puts>
            return FALSE;
   20f2c:	0005883a 	mov	r2,zero
   20f30:	00001706 	br	20f90 <OC_I2C_Read+0x1dc>
        }
   // printf("\n read receive ACK-device address(read)! \n");

        Data32=IORD( i2c_base, 3);
   20f34:	e0bffd17 	ldw	r2,-12(fp)
   20f38:	10800304 	addi	r2,r2,12
   20f3c:	10800037 	ldwio	r2,0(r2)
   20f40:	e0bffe15 	stw	r2,-8(fp)
//        printf("Data32_%d: %d\n", i, Data32);
        *(pData8+i) =  Data32 & 0xff;
   20f44:	e0bfff17 	ldw	r2,-4(fp)
   20f48:	e0fffa17 	ldw	r3,-24(fp)
   20f4c:	1885883a 	add	r2,r3,r2
   20f50:	e0fffe17 	ldw	r3,-8(fp)
   20f54:	10c00005 	stb	r3,0(r2)
    for(i=0;i<nReadLength;i++){
   20f58:	e0bfff17 	ldw	r2,-4(fp)
   20f5c:	10800044 	addi	r2,r2,1
   20f60:	e0bfff15 	stw	r2,-4(fp)
   20f64:	e0ffff17 	ldw	r3,-4(fp)
   20f68:	e0800217 	ldw	r2,8(fp)
   20f6c:	18bfdc16 	blt	r3,r2,20ee0 <OC_I2C_Read+0x12c>
    }

    IOWR( i2c_base, 4,0x40);
   20f70:	e0bffd17 	ldw	r2,-12(fp)
   20f74:	10800404 	addi	r2,r2,16
   20f78:	1007883a 	mov	r3,r2
   20f7c:	00801004 	movi	r2,64
   20f80:	18800035 	stwio	r2,0(r3)

  // Sleep(10);
   //OS_msleep(1);
    usleep(SLEEP_TIME);
   20f84:	01003e84 	movi	r4,250
   20f88:	00361680 	call	36168 <usleep>
 //  printf(" Read  [%02X] = %02Xh\r\n", sub_address, data);


   return TRUE;
   20f8c:	00800044 	movi	r2,1

}
   20f90:	e037883a 	mov	sp,fp
   20f94:	dfc00117 	ldw	ra,4(sp)
   20f98:	df000017 	ldw	fp,0(sp)
   20f9c:	dec00204 	addi	sp,sp,8
   20fa0:	f800283a 	ret

00020fa4 <OC_I2C_Write_Addr>:

bool  OC_I2C_Write_Addr(alt_32 i2c_base,alt_u8 device_address,alt_u8 sub_address, bool bStop){
   20fa4:	defffa04 	addi	sp,sp,-24
   20fa8:	dfc00515 	stw	ra,20(sp)
   20fac:	df000415 	stw	fp,16(sp)
   20fb0:	df000404 	addi	fp,sp,16
   20fb4:	e13fff15 	stw	r4,-4(fp)
   20fb8:	2805883a 	mov	r2,r5
   20fbc:	3009883a 	mov	r4,r6
   20fc0:	3807883a 	mov	r3,r7
   20fc4:	e0bffe05 	stb	r2,-8(fp)
   20fc8:	2005883a 	mov	r2,r4
   20fcc:	e0bffd05 	stb	r2,-12(fp)
   20fd0:	1805883a 	mov	r2,r3
   20fd4:	e0bffc05 	stb	r2,-16(fp)
    //BYTE data = 0x0;
    alt_32 Data32;
    int i;

   //set the tx reg audio chip dev address with write bit
   IOWR( i2c_base, 3,device_address);
   20fd8:	e0bfff17 	ldw	r2,-4(fp)
   20fdc:	10800304 	addi	r2,r2,12
   20fe0:	1007883a 	mov	r3,r2
   20fe4:	e0bffe03 	ldbu	r2,-8(fp)
   20fe8:	18800035 	stwio	r2,0(r3)
   //set STA and WR bits(bit7 and bit4)
   IOWR( i2c_base, 4,0x90);
   20fec:	e0bfff17 	ldw	r2,-4(fp)
   20ff0:	10800404 	addi	r2,r2,16
   20ff4:	1007883a 	mov	r3,r2
   20ff8:	00802404 	movi	r2,144
   20ffc:	18800035 	stwio	r2,0(r3)
   //wait TIP bit go to 0 to end Tx
   if (!ACK_check( i2c_base)){
   21000:	e13fff17 	ldw	r4,-4(fp)
   21004:	0020a980 	call	20a98 <ACK_check>
   21008:	1080005c 	xori	r2,r2,1
   2100c:	10803fcc 	andi	r2,r2,255
   21010:	10000526 	beq	r2,zero,21028 <OC_I2C_Write_Addr+0x84>
       printf("OC_I2C_Read error[2]\r\n");
   21014:	01000134 	movhi	r4,4
   21018:	2120bd04 	addi	r4,r4,-32012
   2101c:	002aa480 	call	2aa48 <puts>
       return FALSE;
   21020:	0005883a 	mov	r2,zero
   21024:	00001e06 	br	210a0 <OC_I2C_Write_Addr+0xfc>
   }
   IOWR(i2c_base, 3,sub_address);
   21028:	e0bfff17 	ldw	r2,-4(fp)
   2102c:	10800304 	addi	r2,r2,12
   21030:	1007883a 	mov	r3,r2
   21034:	e0bffd03 	ldbu	r2,-12(fp)
   21038:	18800035 	stwio	r2,0(r3)

   //set WR bits(bit4)
   IOWR( i2c_base, 4,0x10);
   2103c:	e0bfff17 	ldw	r2,-4(fp)
   21040:	10800404 	addi	r2,r2,16
   21044:	1007883a 	mov	r3,r2
   21048:	00800404 	movi	r2,16
   2104c:	18800035 	stwio	r2,0(r3)
   //wait TIP bit go to 0 to end Tx
    if (!ACK_check( i2c_base)){
   21050:	e13fff17 	ldw	r4,-4(fp)
   21054:	0020a980 	call	20a98 <ACK_check>
   21058:	1080005c 	xori	r2,r2,1
   2105c:	10803fcc 	andi	r2,r2,255
   21060:	10000526 	beq	r2,zero,21078 <OC_I2C_Write_Addr+0xd4>
        printf("OC_I2C_Read error[5]\r\n");
   21064:	01000134 	movhi	r4,4
   21068:	2120c304 	addi	r4,r4,-31988
   2106c:	002aa480 	call	2aa48 <puts>
        return FALSE;
   21070:	0005883a 	mov	r2,zero
   21074:	00000a06 	br	210a0 <OC_I2C_Write_Addr+0xfc>
    }

    if (bStop){
   21078:	e0bffc03 	ldbu	r2,-16(fp)
   2107c:	10000726 	beq	r2,zero,2109c <OC_I2C_Write_Addr+0xf8>
        IOWR( i2c_base, 4,0x40);
   21080:	e0bfff17 	ldw	r2,-4(fp)
   21084:	10800404 	addi	r2,r2,16
   21088:	1007883a 	mov	r3,r2
   2108c:	00801004 	movi	r2,64
   21090:	18800035 	stwio	r2,0(r3)
        usleep(SLEEP_TIME);
   21094:	01003e84 	movi	r4,250
   21098:	00361680 	call	36168 <usleep>
    }

   return TRUE;
   2109c:	00800044 	movi	r2,1

}
   210a0:	e037883a 	mov	sp,fp
   210a4:	dfc00117 	ldw	ra,4(sp)
   210a8:	df000017 	ldw	fp,0(sp)
   210ac:	dec00204 	addi	sp,sp,8
   210b0:	f800283a 	ret

000210b4 <OC_I2C_Read_Continue>:



bool  OC_I2C_Read_Continue(alt_32 i2c_base,alt_u8 device_address, alt_u8 *pData8, int nReadLength){
   210b4:	defff804 	addi	sp,sp,-32
   210b8:	dfc00715 	stw	ra,28(sp)
   210bc:	df000615 	stw	fp,24(sp)
   210c0:	df000604 	addi	fp,sp,24
   210c4:	e13ffd15 	stw	r4,-12(fp)
   210c8:	2805883a 	mov	r2,r5
   210cc:	e1bffb15 	stw	r6,-20(fp)
   210d0:	e1fffa15 	stw	r7,-24(fp)
   210d4:	e0bffc05 	stb	r2,-16(fp)
	int i;
	alt_u32 Data32;

    IOWR(i2c_base, 3,device_address|0x01);
   210d8:	e0bffd17 	ldw	r2,-12(fp)
   210dc:	10800304 	addi	r2,r2,12
   210e0:	1007883a 	mov	r3,r2
   210e4:	e0bffc03 	ldbu	r2,-16(fp)
   210e8:	10800054 	ori	r2,r2,1
   210ec:	10803fcc 	andi	r2,r2,255
   210f0:	18800035 	stwio	r2,0(r3)

   //set STA and WR bits(bit7 and bit4)
    IOWR( i2c_base, 4,0x90);
   210f4:	e0bffd17 	ldw	r2,-12(fp)
   210f8:	10800404 	addi	r2,r2,16
   210fc:	1007883a 	mov	r3,r2
   21100:	00802404 	movi	r2,144
   21104:	18800035 	stwio	r2,0(r3)
//usleep(5*1000);
   //wait TIP bit go to 0 to end Tx
    if (!ACK_check( i2c_base)){
   21108:	e13ffd17 	ldw	r4,-12(fp)
   2110c:	0020a980 	call	20a98 <ACK_check>
   21110:	1080005c 	xori	r2,r2,1
   21114:	10803fcc 	andi	r2,r2,255
   21118:	10000526 	beq	r2,zero,21130 <OC_I2C_Read_Continue+0x7c>
        printf("OC_I2C_Read error[8]\r\n");
   2111c:	01000134 	movhi	r4,4
   21120:	2120c904 	addi	r4,r4,-31964
   21124:	002aa480 	call	2aa48 <puts>
        return FALSE;
   21128:	0005883a 	mov	r2,zero
   2112c:	00002e06 	br	211e8 <OC_I2C_Read_Continue+0x134>
    }

    for(i=0;i<nReadLength;i++){
   21130:	e03fff15 	stw	zero,-4(fp)
   21134:	00002106 	br	211bc <OC_I2C_Read_Continue+0x108>
  // printf("\n read receive ACK-device address(read)! \n");
   //set the RD and ACK bit(bit5 and bit3)
    	IOWR( i2c_base, 4,((i+1) == nReadLength)?0x28:0x20);
   21138:	e0bffd17 	ldw	r2,-12(fp)
   2113c:	10800404 	addi	r2,r2,16
   21140:	1009883a 	mov	r4,r2
   21144:	e0bfff17 	ldw	r2,-4(fp)
   21148:	10800044 	addi	r2,r2,1
   2114c:	e0fffa17 	ldw	r3,-24(fp)
   21150:	1880021e 	bne	r3,r2,2115c <OC_I2C_Read_Continue+0xa8>
   21154:	00800a04 	movi	r2,40
   21158:	00000106 	br	21160 <OC_I2C_Read_Continue+0xac>
   2115c:	00800804 	movi	r2,32
   21160:	20800035 	stwio	r2,0(r4)

        if (!ACK_judge_for_read( i2c_base)){
   21164:	e13ffd17 	ldw	r4,-12(fp)
   21168:	0020d500 	call	20d50 <ACK_judge_for_read>
   2116c:	1080005c 	xori	r2,r2,1
   21170:	10803fcc 	andi	r2,r2,255
   21174:	10000526 	beq	r2,zero,2118c <OC_I2C_Read_Continue+0xd8>
            printf("OC_I2C_Read error[10]\r\n");
   21178:	01000134 	movhi	r4,4
   2117c:	2120cf04 	addi	r4,r4,-31940
   21180:	002aa480 	call	2aa48 <puts>
            return FALSE;
   21184:	0005883a 	mov	r2,zero
   21188:	00001706 	br	211e8 <OC_I2C_Read_Continue+0x134>
        }
   // printf("\n read receive ACK-device address(read)! \n");

        Data32=IORD( i2c_base, 3);
   2118c:	e0bffd17 	ldw	r2,-12(fp)
   21190:	10800304 	addi	r2,r2,12
   21194:	10800037 	ldwio	r2,0(r2)
   21198:	e0bffe15 	stw	r2,-8(fp)
        *(pData8+i) =  Data32 & 0xff;
   2119c:	e0bfff17 	ldw	r2,-4(fp)
   211a0:	e0fffb17 	ldw	r3,-20(fp)
   211a4:	1885883a 	add	r2,r3,r2
   211a8:	e0fffe17 	ldw	r3,-8(fp)
   211ac:	10c00005 	stb	r3,0(r2)
    for(i=0;i<nReadLength;i++){
   211b0:	e0bfff17 	ldw	r2,-4(fp)
   211b4:	10800044 	addi	r2,r2,1
   211b8:	e0bfff15 	stw	r2,-4(fp)
   211bc:	e0ffff17 	ldw	r3,-4(fp)
   211c0:	e0bffa17 	ldw	r2,-24(fp)
   211c4:	18bfdc16 	blt	r3,r2,21138 <OC_I2C_Read_Continue+0x84>
    }

    IOWR( i2c_base, 4,0x40);
   211c8:	e0bffd17 	ldw	r2,-12(fp)
   211cc:	10800404 	addi	r2,r2,16
   211d0:	1007883a 	mov	r3,r2
   211d4:	00801004 	movi	r2,64
   211d8:	18800035 	stwio	r2,0(r3)

  // Sleep(10);
   //OS_msleep(1);
    usleep(SLEEP_TIME);
   211dc:	01003e84 	movi	r4,250
   211e0:	00361680 	call	36168 <usleep>
 //  printf(" Read  [%02X] = %02Xh\r\n", sub_address, data);


   return TRUE;
   211e4:	00800044 	movi	r2,1

}
   211e8:	e037883a 	mov	sp,fp
   211ec:	dfc00117 	ldw	ra,4(sp)
   211f0:	df000017 	ldw	fp,0(sp)
   211f4:	dec00204 	addi	sp,sp,8
   211f8:	f800283a 	ret

000211fc <OC_I2CL_Write>:


//  size > 2Kb
bool  OC_I2CL_Write(alt_32 i2c_base,alt_u8 device_address,alt_u16 sub_address,alt_u8 *pData, int nWriteLength)
    {
   211fc:	defff804 	addi	sp,sp,-32
   21200:	dfc00715 	stw	ra,28(sp)
   21204:	df000615 	stw	fp,24(sp)
   21208:	df000604 	addi	fp,sp,24
   2120c:	e13ffd15 	stw	r4,-12(fp)
   21210:	2805883a 	mov	r2,r5
   21214:	3007883a 	mov	r3,r6
   21218:	e1fffa15 	stw	r7,-24(fp)
   2121c:	e0bffc05 	stb	r2,-16(fp)
   21220:	1805883a 	mov	r2,r3
   21224:	e0bffb0d 	sth	r2,-20(fp)
    //DWORD reg_data = 0x0;
	alt_u8 AddrHigh, AddrLow;
    //int count= 0;

    AddrHigh = (sub_address >> 8) & 0xFF;
   21228:	e0bffb0b 	ldhu	r2,-20(fp)
   2122c:	1004d23a 	srli	r2,r2,8
   21230:	e0bffec5 	stb	r2,-5(fp)
    AddrLow  = sub_address & 0xFF;
   21234:	e0bffb0b 	ldhu	r2,-20(fp)
   21238:	e0bffe85 	stb	r2,-6(fp)

    int i;

    //set the tx reg audio chip dev address with write bit
   if (!Write32_Data( i2c_base, 3,device_address))
   2123c:	e0bffc03 	ldbu	r2,-16(fp)
   21240:	100d883a 	mov	r6,r2
   21244:	014000c4 	movi	r5,3
   21248:	e13ffd17 	ldw	r4,-12(fp)
   2124c:	00207240 	call	20724 <Write32_Data>
   21250:	1080005c 	xori	r2,r2,1
   21254:	10803fcc 	andi	r2,r2,255
   21258:	10000226 	beq	r2,zero,21264 <OC_I2CL_Write+0x68>
       return FALSE;
   2125c:	0005883a 	mov	r2,zero
   21260:	00007d06 	br	21458 <OC_I2CL_Write+0x25c>
   //set STA and WR bits(bit7 and bit4)
   if (!Write32_Data( i2c_base, 4,0x90))//0x90
   21264:	01802404 	movi	r6,144
   21268:	01400104 	movi	r5,4
   2126c:	e13ffd17 	ldw	r4,-12(fp)
   21270:	00207240 	call	20724 <Write32_Data>
   21274:	1080005c 	xori	r2,r2,1
   21278:	10803fcc 	andi	r2,r2,255
   2127c:	10000226 	beq	r2,zero,21288 <OC_I2CL_Write+0x8c>
       return FALSE;
   21280:	0005883a 	mov	r2,zero
   21284:	00007406 	br	21458 <OC_I2CL_Write+0x25c>

   //wait TIP bit go to 0 to end Tx
    if(!ACK_check( i2c_base)){
   21288:	e13ffd17 	ldw	r4,-12(fp)
   2128c:	0020a980 	call	20a98 <ACK_check>
   21290:	1080005c 	xori	r2,r2,1
   21294:	10803fcc 	andi	r2,r2,255
   21298:	10000526 	beq	r2,zero,212b0 <OC_I2CL_Write+0xb4>
        printf("OC_I2CL_Write error[0]\r\n");
   2129c:	01000134 	movhi	r4,4
   212a0:	2120d504 	addi	r4,r4,-31916
   212a4:	002aa480 	call	2aa48 <puts>
        return FALSE;
   212a8:	0005883a 	mov	r2,zero
   212ac:	00006a06 	br	21458 <OC_I2CL_Write+0x25c>
  // printf("\n receive ACK-device address! \n");

   //set the txr reg data with reg address + 1 data MSB
 //  reg_data  = (sub_address << 1) & 0xFE;
   //reg_data |= ((data >> 8) & 0x01);
   if (!Write32_Data( i2c_base, 3,AddrHigh))//reg_data&0xff);
   212b0:	e0bffec3 	ldbu	r2,-5(fp)
   212b4:	100d883a 	mov	r6,r2
   212b8:	014000c4 	movi	r5,3
   212bc:	e13ffd17 	ldw	r4,-12(fp)
   212c0:	00207240 	call	20724 <Write32_Data>
   212c4:	1080005c 	xori	r2,r2,1
   212c8:	10803fcc 	andi	r2,r2,255
   212cc:	10000226 	beq	r2,zero,212d8 <OC_I2CL_Write+0xdc>
       return FALSE;
   212d0:	0005883a 	mov	r2,zero
   212d4:	00006006 	br	21458 <OC_I2CL_Write+0x25c>

   //set WR bits(bit4)
    if (!Write32_Data( i2c_base, 4,0x10))
   212d8:	01800404 	movi	r6,16
   212dc:	01400104 	movi	r5,4
   212e0:	e13ffd17 	ldw	r4,-12(fp)
   212e4:	00207240 	call	20724 <Write32_Data>
   212e8:	1080005c 	xori	r2,r2,1
   212ec:	10803fcc 	andi	r2,r2,255
   212f0:	10000226 	beq	r2,zero,212fc <OC_I2CL_Write+0x100>
        return FALSE;
   212f4:	0005883a 	mov	r2,zero
   212f8:	00005706 	br	21458 <OC_I2CL_Write+0x25c>

   //wait TIP bit go to 0 to end Tx
    if(!ACK_check( i2c_base)){
   212fc:	e13ffd17 	ldw	r4,-12(fp)
   21300:	0020a980 	call	20a98 <ACK_check>
   21304:	1080005c 	xori	r2,r2,1
   21308:	10803fcc 	andi	r2,r2,255
   2130c:	10000526 	beq	r2,zero,21324 <OC_I2CL_Write+0x128>
        printf("OC_I2CL_Write error[1]\r\n");
   21310:	01000134 	movhi	r4,4
   21314:	2120db04 	addi	r4,r4,-31892
   21318:	002aa480 	call	2aa48 <puts>
        return FALSE;
   2131c:	0005883a 	mov	r2,zero
   21320:	00004d06 	br	21458 <OC_I2CL_Write+0x25c>
    }
  // printf("\n receive ACK-reg high address! \n");

   //set the txr reg data with reg address + 1 data MSB
   if (!Write32_Data( i2c_base, 3,AddrLow))//reg_data&0xff);
   21324:	e0bffe83 	ldbu	r2,-6(fp)
   21328:	100d883a 	mov	r6,r2
   2132c:	014000c4 	movi	r5,3
   21330:	e13ffd17 	ldw	r4,-12(fp)
   21334:	00207240 	call	20724 <Write32_Data>
   21338:	1080005c 	xori	r2,r2,1
   2133c:	10803fcc 	andi	r2,r2,255
   21340:	10000226 	beq	r2,zero,2134c <OC_I2CL_Write+0x150>
       return FALSE;
   21344:	0005883a 	mov	r2,zero
   21348:	00004306 	br	21458 <OC_I2CL_Write+0x25c>

   //set WR bits(bit4)
    Write32_Data( i2c_base, 4,0x10);
   2134c:	01800404 	movi	r6,16
   21350:	01400104 	movi	r5,4
   21354:	e13ffd17 	ldw	r4,-12(fp)
   21358:	00207240 	call	20724 <Write32_Data>

   //wait TIP bit go to 0 to end Tx
    if(!ACK_check( i2c_base)){
   2135c:	e13ffd17 	ldw	r4,-12(fp)
   21360:	0020a980 	call	20a98 <ACK_check>
   21364:	1080005c 	xori	r2,r2,1
   21368:	10803fcc 	andi	r2,r2,255
   2136c:	10000526 	beq	r2,zero,21384 <OC_I2CL_Write+0x188>
        printf("OC_I2CL_Write error[2]\r\n");
   21370:	01000134 	movhi	r4,4
   21374:	2120e104 	addi	r4,r4,-31868
   21378:	002aa480 	call	2aa48 <puts>
        return FALSE;
   2137c:	0005883a 	mov	r2,zero
   21380:	00003506 	br	21458 <OC_I2CL_Write+0x25c>
    }
  //  printf("\n receive ACK-reg low address! \n");

#if 1
    //for( i=nWriteLength-1;i>=0;i--){
    for( i=0;i<nWriteLength;i++){
   21384:	e03fff15 	stw	zero,-4(fp)
   21388:	00002406 	br	2141c <OC_I2CL_Write+0x220>

        //set the txr reg data with the other data 8 bit LSB
        if (!Write32_Data( i2c_base, 3,*(pData+i)))
   2138c:	e0bfff17 	ldw	r2,-4(fp)
   21390:	e0fffa17 	ldw	r3,-24(fp)
   21394:	1885883a 	add	r2,r3,r2
   21398:	10800003 	ldbu	r2,0(r2)
   2139c:	10803fcc 	andi	r2,r2,255
   213a0:	100d883a 	mov	r6,r2
   213a4:	014000c4 	movi	r5,3
   213a8:	e13ffd17 	ldw	r4,-12(fp)
   213ac:	00207240 	call	20724 <Write32_Data>
   213b0:	1080005c 	xori	r2,r2,1
   213b4:	10803fcc 	andi	r2,r2,255
   213b8:	10000226 	beq	r2,zero,213c4 <OC_I2CL_Write+0x1c8>
            return FALSE;
   213bc:	0005883a 	mov	r2,zero
   213c0:	00002506 	br	21458 <OC_I2CL_Write+0x25c>

       //set STO and WR bits(bit7 and bit4)
        if (!Write32_Data( i2c_base, 4,0x10))
   213c4:	01800404 	movi	r6,16
   213c8:	01400104 	movi	r5,4
   213cc:	e13ffd17 	ldw	r4,-12(fp)
   213d0:	00207240 	call	20724 <Write32_Data>
   213d4:	1080005c 	xori	r2,r2,1
   213d8:	10803fcc 	andi	r2,r2,255
   213dc:	10000226 	beq	r2,zero,213e8 <OC_I2CL_Write+0x1ec>
            return FALSE;
   213e0:	0005883a 	mov	r2,zero
   213e4:	00001c06 	br	21458 <OC_I2CL_Write+0x25c>

        //wait TIP bit go to 0 to end Tx
         if(!ACK_check( i2c_base)){
   213e8:	e13ffd17 	ldw	r4,-12(fp)
   213ec:	0020a980 	call	20a98 <ACK_check>
   213f0:	1080005c 	xori	r2,r2,1
   213f4:	10803fcc 	andi	r2,r2,255
   213f8:	10000526 	beq	r2,zero,21410 <OC_I2CL_Write+0x214>
             printf("OC_I2CL_Write error[3]\r\n");
   213fc:	01000134 	movhi	r4,4
   21400:	2120e704 	addi	r4,r4,-31844
   21404:	002aa480 	call	2aa48 <puts>
             return FALSE;
   21408:	0005883a 	mov	r2,zero
   2140c:	00001206 	br	21458 <OC_I2CL_Write+0x25c>
    for( i=0;i<nWriteLength;i++){
   21410:	e0bfff17 	ldw	r2,-4(fp)
   21414:	10800044 	addi	r2,r2,1
   21418:	e0bfff15 	stw	r2,-4(fp)
   2141c:	e0ffff17 	ldw	r3,-4(fp)
   21420:	e0800217 	ldw	r2,8(fp)
   21424:	18bfd916 	blt	r3,r2,2138c <OC_I2CL_Write+0x190>
   //wait TIP bit go to 0 to end Tx
    if(!ACK_check( i2c_base))
        return FALSE;

#endif
    if (!Write32_Data( i2c_base, 4,0x40))
   21428:	01801004 	movi	r6,64
   2142c:	01400104 	movi	r5,4
   21430:	e13ffd17 	ldw	r4,-12(fp)
   21434:	00207240 	call	20724 <Write32_Data>
   21438:	1080005c 	xori	r2,r2,1
   2143c:	10803fcc 	andi	r2,r2,255
   21440:	10000226 	beq	r2,zero,2144c <OC_I2CL_Write+0x250>
         return FALSE;
   21444:	0005883a 	mov	r2,zero
   21448:	00000306 	br	21458 <OC_I2CL_Write+0x25c>

     //OS_msleep(1);
      usleep(SLEEP_TIME);
   2144c:	01003e84 	movi	r4,250
   21450:	00361680 	call	36168 <usleep>
  //  printf("\n receive ACK-data! \n");

     return TRUE;
   21454:	00800044 	movi	r2,1
}
   21458:	e037883a 	mov	sp,fp
   2145c:	dfc00117 	ldw	ra,4(sp)
   21460:	df000017 	ldw	fp,0(sp)
   21464:	dec00204 	addi	sp,sp,8
   21468:	f800283a 	ret

0002146c <OC_I2CL_Read>:

   return TRUE;

} */

bool  OC_I2CL_Read(alt_32 i2c_base,alt_u8 device_address, alt_u16 sub_address, alt_u8 *pData8, int nReadLength){
   2146c:	defff704 	addi	sp,sp,-36
   21470:	dfc00815 	stw	ra,32(sp)
   21474:	df000715 	stw	fp,28(sp)
   21478:	df000704 	addi	fp,sp,28
   2147c:	e13ffc15 	stw	r4,-16(fp)
   21480:	2805883a 	mov	r2,r5
   21484:	3007883a 	mov	r3,r6
   21488:	e1fff915 	stw	r7,-28(fp)
   2148c:	e0bffb05 	stb	r2,-20(fp)
   21490:	1805883a 	mov	r2,r3
   21494:	e0bffa0d 	sth	r2,-24(fp)
    int i;

    alt_u8 AddrHigh, AddrLow;
    alt_u8 DataHigh, DataLow;

    AddrHigh = (sub_address >> 8) & 0xFF;
   21498:	e0bffa0b 	ldhu	r2,-24(fp)
   2149c:	1004d23a 	srli	r2,r2,8
   214a0:	e0bffec5 	stb	r2,-5(fp)
    AddrLow  = sub_address & 0xFF;
   214a4:	e0bffa0b 	ldhu	r2,-24(fp)
   214a8:	e0bffe85 	stb	r2,-6(fp)


   //set the tx reg audio chip dev address with write bit
   if (!Write32_Data( i2c_base, 3,device_address))
   214ac:	e0bffb03 	ldbu	r2,-20(fp)
   214b0:	100d883a 	mov	r6,r2
   214b4:	014000c4 	movi	r5,3
   214b8:	e13ffc17 	ldw	r4,-16(fp)
   214bc:	00207240 	call	20724 <Write32_Data>
   214c0:	1080005c 	xori	r2,r2,1
   214c4:	10803fcc 	andi	r2,r2,255
   214c8:	10000226 	beq	r2,zero,214d4 <OC_I2CL_Read+0x68>
       return FALSE;
   214cc:	0005883a 	mov	r2,zero
   214d0:	00009e06 	br	2174c <OC_I2CL_Read+0x2e0>

   //set STA and WR bits(bit7 and bit4)
   if (!Write32_Data( i2c_base, 4,0x90))
   214d4:	01802404 	movi	r6,144
   214d8:	01400104 	movi	r5,4
   214dc:	e13ffc17 	ldw	r4,-16(fp)
   214e0:	00207240 	call	20724 <Write32_Data>
   214e4:	1080005c 	xori	r2,r2,1
   214e8:	10803fcc 	andi	r2,r2,255
   214ec:	10000226 	beq	r2,zero,214f8 <OC_I2CL_Read+0x8c>
       return FALSE;
   214f0:	0005883a 	mov	r2,zero
   214f4:	00009506 	br	2174c <OC_I2CL_Read+0x2e0>

   //wait TIP bit go to 0 to end Tx
    if(!ACK_check( i2c_base)){
   214f8:	e13ffc17 	ldw	r4,-16(fp)
   214fc:	0020a980 	call	20a98 <ACK_check>
   21500:	1080005c 	xori	r2,r2,1
   21504:	10803fcc 	andi	r2,r2,255
   21508:	10000526 	beq	r2,zero,21520 <OC_I2CL_Read+0xb4>
        printf("OC_I2CL_Read error[0]\r\n");
   2150c:	01000134 	movhi	r4,4
   21510:	2120ed04 	addi	r4,r4,-31820
   21514:	002aa480 	call	2aa48 <puts>
        return FALSE;
   21518:	0005883a 	mov	r2,zero
   2151c:	00008b06 	br	2174c <OC_I2CL_Read+0x2e0>
 //  printf("\n receive ACK-device address! \n");


   //set the txr reg data with reg address + 0

   if (!Write32_Data( i2c_base, 3,AddrHigh))//reg_data&0xff);
   21520:	e0bffec3 	ldbu	r2,-5(fp)
   21524:	100d883a 	mov	r6,r2
   21528:	014000c4 	movi	r5,3
   2152c:	e13ffc17 	ldw	r4,-16(fp)
   21530:	00207240 	call	20724 <Write32_Data>
   21534:	1080005c 	xori	r2,r2,1
   21538:	10803fcc 	andi	r2,r2,255
   2153c:	10000226 	beq	r2,zero,21548 <OC_I2CL_Read+0xdc>
       return FALSE;
   21540:	0005883a 	mov	r2,zero
   21544:	00008106 	br	2174c <OC_I2CL_Read+0x2e0>

   //set WR bits(bit4)
    if (!Write32_Data( i2c_base, 4,0x10))
   21548:	01800404 	movi	r6,16
   2154c:	01400104 	movi	r5,4
   21550:	e13ffc17 	ldw	r4,-16(fp)
   21554:	00207240 	call	20724 <Write32_Data>
   21558:	1080005c 	xori	r2,r2,1
   2155c:	10803fcc 	andi	r2,r2,255
   21560:	10000226 	beq	r2,zero,2156c <OC_I2CL_Read+0x100>
        return FALSE;
   21564:	0005883a 	mov	r2,zero
   21568:	00007806 	br	2174c <OC_I2CL_Read+0x2e0>

   //wait TIP bit go to 0 to end Tx
    if(!ACK_check( i2c_base)){
   2156c:	e13ffc17 	ldw	r4,-16(fp)
   21570:	0020a980 	call	20a98 <ACK_check>
   21574:	1080005c 	xori	r2,r2,1
   21578:	10803fcc 	andi	r2,r2,255
   2157c:	10000526 	beq	r2,zero,21594 <OC_I2CL_Read+0x128>
        printf("OC_I2CL_Read error[1]\r\n");
   21580:	01000134 	movhi	r4,4
   21584:	2120f304 	addi	r4,r4,-31796
   21588:	002aa480 	call	2aa48 <puts>
        return FALSE;
   2158c:	0005883a 	mov	r2,zero
   21590:	00006e06 	br	2174c <OC_I2CL_Read+0x2e0>
    }
//   printf("\n read receive ACK-reg High address! \n");

     //set the txr reg data with reg address + 0
   if (!Write32_Data( i2c_base, 3,AddrLow)) //;//reg_data&0xff);
   21594:	e0bffe83 	ldbu	r2,-6(fp)
   21598:	100d883a 	mov	r6,r2
   2159c:	014000c4 	movi	r5,3
   215a0:	e13ffc17 	ldw	r4,-16(fp)
   215a4:	00207240 	call	20724 <Write32_Data>
   215a8:	1080005c 	xori	r2,r2,1
   215ac:	10803fcc 	andi	r2,r2,255
   215b0:	10000226 	beq	r2,zero,215bc <OC_I2CL_Read+0x150>
       return FALSE;
   215b4:	0005883a 	mov	r2,zero
   215b8:	00006406 	br	2174c <OC_I2CL_Read+0x2e0>
   //set WR bits(bit4)
    if (!Write32_Data( i2c_base, 4,0x10))
   215bc:	01800404 	movi	r6,16
   215c0:	01400104 	movi	r5,4
   215c4:	e13ffc17 	ldw	r4,-16(fp)
   215c8:	00207240 	call	20724 <Write32_Data>
   215cc:	1080005c 	xori	r2,r2,1
   215d0:	10803fcc 	andi	r2,r2,255
   215d4:	10000226 	beq	r2,zero,215e0 <OC_I2CL_Read+0x174>
        return FALSE;
   215d8:	0005883a 	mov	r2,zero
   215dc:	00005b06 	br	2174c <OC_I2CL_Read+0x2e0>

   //wait TIP bit go to 0 to end Tx
    if(!ACK_check( i2c_base)){
   215e0:	e13ffc17 	ldw	r4,-16(fp)
   215e4:	0020a980 	call	20a98 <ACK_check>
   215e8:	1080005c 	xori	r2,r2,1
   215ec:	10803fcc 	andi	r2,r2,255
   215f0:	10000526 	beq	r2,zero,21608 <OC_I2CL_Read+0x19c>
        printf("OC_I2CL_Read error[2]\r\n");
   215f4:	01000134 	movhi	r4,4
   215f8:	2120f904 	addi	r4,r4,-31772
   215fc:	002aa480 	call	2aa48 <puts>
        return FALSE;
   21600:	0005883a 	mov	r2,zero
   21604:	00005106 	br	2174c <OC_I2CL_Read+0x2e0>

 //  printf("\n read receive ACK-reg Low address! \n");

   //read
    //set the tx reg audio chip dev address with read bit 1
     if (!Write32_Data( i2c_base, 3,device_address|0x01))
   21608:	e0bffb03 	ldbu	r2,-20(fp)
   2160c:	10800054 	ori	r2,r2,1
   21610:	10803fcc 	andi	r2,r2,255
   21614:	100d883a 	mov	r6,r2
   21618:	014000c4 	movi	r5,3
   2161c:	e13ffc17 	ldw	r4,-16(fp)
   21620:	00207240 	call	20724 <Write32_Data>
   21624:	1080005c 	xori	r2,r2,1
   21628:	10803fcc 	andi	r2,r2,255
   2162c:	10000226 	beq	r2,zero,21638 <OC_I2CL_Read+0x1cc>
         return FALSE;
   21630:	0005883a 	mov	r2,zero
   21634:	00004506 	br	2174c <OC_I2CL_Read+0x2e0>

   //set STA and WR bits(bit7 and bit4)
     if (!Write32_Data( i2c_base, 4,0x90))
   21638:	01802404 	movi	r6,144
   2163c:	01400104 	movi	r5,4
   21640:	e13ffc17 	ldw	r4,-16(fp)
   21644:	00207240 	call	20724 <Write32_Data>
   21648:	1080005c 	xori	r2,r2,1
   2164c:	10803fcc 	andi	r2,r2,255
   21650:	10000226 	beq	r2,zero,2165c <OC_I2CL_Read+0x1f0>
         return FALSE;
   21654:	0005883a 	mov	r2,zero
   21658:	00003c06 	br	2174c <OC_I2CL_Read+0x2e0>

   //wait TIP bit go to 0 to end Tx
    if(!ACK_check( i2c_base)){
   2165c:	e13ffc17 	ldw	r4,-16(fp)
   21660:	0020a980 	call	20a98 <ACK_check>
   21664:	1080005c 	xori	r2,r2,1
   21668:	10803fcc 	andi	r2,r2,255
   2166c:	10000526 	beq	r2,zero,21684 <OC_I2CL_Read+0x218>
        printf("OC_I2CL_Read error[3]\r\n");
   21670:	01000134 	movhi	r4,4
   21674:	2120ff04 	addi	r4,r4,-31748
   21678:	002aa480 	call	2aa48 <puts>
        return FALSE;
   2167c:	0005883a 	mov	r2,zero
   21680:	00003206 	br	2174c <OC_I2CL_Read+0x2e0>
//   printf("\n read receive ACK-device address(read)! \n");

       //read the rxr data

#if 1
    for(i=0;i<nReadLength;i++){
   21684:	e03fff15 	stw	zero,-4(fp)
   21688:	00002106 	br	21710 <OC_I2CL_Read+0x2a4>
  // printf("\n read receive ACK-device address(read)! \n");
   //set the RD and ACK bit(bit5 and bit3)
    	IOWR( i2c_base, 4,((i+1) == nReadLength)?0x28:0x20);
   2168c:	e0bffc17 	ldw	r2,-16(fp)
   21690:	10800404 	addi	r2,r2,16
   21694:	1009883a 	mov	r4,r2
   21698:	e0bfff17 	ldw	r2,-4(fp)
   2169c:	10800044 	addi	r2,r2,1
   216a0:	e0c00217 	ldw	r3,8(fp)
   216a4:	1880021e 	bne	r3,r2,216b0 <OC_I2CL_Read+0x244>
   216a8:	00800a04 	movi	r2,40
   216ac:	00000106 	br	216b4 <OC_I2CL_Read+0x248>
   216b0:	00800804 	movi	r2,32
   216b4:	20800035 	stwio	r2,0(r4)

        if (!ACK_judge_for_read( i2c_base)){
   216b8:	e13ffc17 	ldw	r4,-16(fp)
   216bc:	0020d500 	call	20d50 <ACK_judge_for_read>
   216c0:	1080005c 	xori	r2,r2,1
   216c4:	10803fcc 	andi	r2,r2,255
   216c8:	10000526 	beq	r2,zero,216e0 <OC_I2CL_Read+0x274>
            printf("OC_I2CL_Read error[4]\r\n");
   216cc:	01000134 	movhi	r4,4
   216d0:	21210504 	addi	r4,r4,-31724
   216d4:	002aa480 	call	2aa48 <puts>
            return FALSE;
   216d8:	0005883a 	mov	r2,zero
   216dc:	00001b06 	br	2174c <OC_I2CL_Read+0x2e0>
        }
   // printf("\n read receive ACK-device address(read)! \n");

        Data32=IORD( i2c_base, 3);
   216e0:	e0bffc17 	ldw	r2,-16(fp)
   216e4:	10800304 	addi	r2,r2,12
   216e8:	10800037 	ldwio	r2,0(r2)
   216ec:	e0bffd15 	stw	r2,-12(fp)
        *(pData8+i) =  Data32 & 0xff;
   216f0:	e0bfff17 	ldw	r2,-4(fp)
   216f4:	e0fff917 	ldw	r3,-28(fp)
   216f8:	1885883a 	add	r2,r3,r2
   216fc:	e0fffd17 	ldw	r3,-12(fp)
   21700:	10c00005 	stb	r3,0(r2)
    for(i=0;i<nReadLength;i++){
   21704:	e0bfff17 	ldw	r2,-4(fp)
   21708:	10800044 	addi	r2,r2,1
   2170c:	e0bfff15 	stw	r2,-4(fp)
   21710:	e0ffff17 	ldw	r3,-4(fp)
   21714:	e0800217 	ldw	r2,8(fp)
   21718:	18bfdc16 	blt	r3,r2,2168c <OC_I2CL_Read+0x220>
    DataLow =  Data32 & 0xff;

    pData16 = (DataHigh << 8) | DataLow;
#endif

   if (!Write32_Data( i2c_base, 4,0x40))
   2171c:	01801004 	movi	r6,64
   21720:	01400104 	movi	r5,4
   21724:	e13ffc17 	ldw	r4,-16(fp)
   21728:	00207240 	call	20724 <Write32_Data>
   2172c:	1080005c 	xori	r2,r2,1
   21730:	10803fcc 	andi	r2,r2,255
   21734:	10000226 	beq	r2,zero,21740 <OC_I2CL_Read+0x2d4>
       return FALSE;
   21738:	0005883a 	mov	r2,zero
   2173c:	00000306 	br	2174c <OC_I2CL_Read+0x2e0>

   //OS_msleep(1);
    usleep(SLEEP_TIME);
   21740:	01003e84 	movi	r4,250
   21744:	00361680 	call	36168 <usleep>

   return TRUE;
   21748:	00800044 	movi	r2,1

}
   2174c:	e037883a 	mov	sp,fp
   21750:	dfc00117 	ldw	ra,4(sp)
   21754:	df000017 	ldw	fp,0(sp)
   21758:	dec00204 	addi	sp,sp,8
   2175c:	f800283a 	ret

00021760 <Light_Init>:

////////////////////////////////////////
// export API
static alt_u32 Light_I2C_Controller_Base = LIGHT_I2C_OPENCORES_BASE;

void Light_Init(alt_u32 I2C_Controller_Base){
   21760:	defffb04 	addi	sp,sp,-20
   21764:	dfc00415 	stw	ra,16(sp)
   21768:	df000315 	stw	fp,12(sp)
   2176c:	df000304 	addi	fp,sp,12
   21770:	e13ffd15 	stw	r4,-12(fp)
	const int Ref_CLK = 50*1000*1000; // 50MHz
   21774:	0080bef4 	movhi	r2,763
   21778:	10bc2004 	addi	r2,r2,-3968
   2177c:	e0bfff15 	stw	r2,-4(fp)
	const int I2C_CLK = 400*1000; // 400KHz
   21780:	008001b4 	movhi	r2,6
   21784:	1086a004 	addi	r2,r2,6784
   21788:	e0bffe15 	stw	r2,-8(fp)

	Light_I2C_Controller_Base = I2C_Controller_Base;
   2178c:	e0bffd17 	ldw	r2,-12(fp)
   21790:	d0a00215 	stw	r2,-32760(gp)
	oc_i2c_init_ex(Light_I2C_Controller_Base, Ref_CLK, I2C_CLK);
   21794:	d0a00217 	ldw	r2,-32760(gp)
   21798:	e1bffe17 	ldw	r6,-8(fp)
   2179c:	e17fff17 	ldw	r5,-4(fp)
   217a0:	1009883a 	mov	r4,r2
   217a4:	00208240 	call	20824 <oc_i2c_init_ex>
}
   217a8:	0001883a 	nop
   217ac:	e037883a 	mov	sp,fp
   217b0:	dfc00117 	ldw	ra,4(sp)
   217b4:	df000017 	ldw	fp,0(sp)
   217b8:	dec00204 	addi	sp,sp,8
   217bc:	f800283a 	ret

000217c0 <Light_GetID>:

void Light_GetID(alt_u8 *data)
{
   217c0:	defffc04 	addi	sp,sp,-16
   217c4:	dfc00315 	stw	ra,12(sp)
   217c8:	df000215 	stw	fp,8(sp)
   217cc:	df000204 	addi	fp,sp,8
   217d0:	e13ffe15 	stw	r4,-8(fp)
    bool bPass;
    alt_u8 CommandCode = COMMAND_CMD | ID_REG ;
   217d4:	00bfe284 	movi	r2,-118
   217d8:	e0bfffc5 	stb	r2,-1(fp)
    //read ID
    bPass = I2C_Read_Light( DEVICE_ADDR,CommandCode , data);
   217dc:	e0bfffc3 	ldbu	r2,-1(fp)
   217e0:	e1bffe17 	ldw	r6,-8(fp)
   217e4:	100b883a 	mov	r5,r2
   217e8:	01001484 	movi	r4,82
   217ec:	0021e640 	call	21e64 <I2C_Read_Light>
   217f0:	e0bfff85 	stb	r2,-2(fp)
    if(!bPass)  *data = 0;
   217f4:	e0bfff83 	ldbu	r2,-2(fp)
   217f8:	1080005c 	xori	r2,r2,1
   217fc:	10803fcc 	andi	r2,r2,255
   21800:	10000226 	beq	r2,zero,2180c <Light_GetID+0x4c>
   21804:	e0bffe17 	ldw	r2,-8(fp)
   21808:	10000005 	stb	zero,0(r2)

}
   2180c:	0001883a 	nop
   21810:	e037883a 	mov	sp,fp
   21814:	dfc00117 	ldw	ra,4(sp)
   21818:	df000017 	ldw	fp,0(sp)
   2181c:	dec00204 	addi	sp,sp,8
   21820:	f800283a 	ret

00021824 <Light_GetTiming>:

void Light_GetTiming(alt_u8 *data)
{
   21824:	defffc04 	addi	sp,sp,-16
   21828:	dfc00315 	stw	ra,12(sp)
   2182c:	df000215 	stw	fp,8(sp)
   21830:	df000204 	addi	fp,sp,8
   21834:	e13ffe15 	stw	r4,-8(fp)
    bool bPass;
    alt_u8 CommandCode = COMMAND_CMD | TIMING_REG ;
   21838:	00bfe044 	movi	r2,-127
   2183c:	e0bfffc5 	stb	r2,-1(fp)
    //read ID
    bPass = I2C_Read_Light( DEVICE_ADDR,CommandCode , data);
   21840:	e0bfffc3 	ldbu	r2,-1(fp)
   21844:	e1bffe17 	ldw	r6,-8(fp)
   21848:	100b883a 	mov	r5,r2
   2184c:	01001484 	movi	r4,82
   21850:	0021e640 	call	21e64 <I2C_Read_Light>
   21854:	e0bfff85 	stb	r2,-2(fp)
    if(!bPass)  *data = 0;
   21858:	e0bfff83 	ldbu	r2,-2(fp)
   2185c:	1080005c 	xori	r2,r2,1
   21860:	10803fcc 	andi	r2,r2,255
   21864:	10000226 	beq	r2,zero,21870 <Light_GetTiming+0x4c>
   21868:	e0bffe17 	ldw	r2,-8(fp)
   2186c:	10000005 	stb	zero,0(r2)

}
   21870:	0001883a 	nop
   21874:	e037883a 	mov	sp,fp
   21878:	dfc00117 	ldw	ra,4(sp)
   2187c:	df000017 	ldw	fp,0(sp)
   21880:	dec00204 	addi	sp,sp,8
   21884:	f800283a 	ret

00021888 <Light_PowerSwitch>:

bool Light_PowerSwitch(bool bSwitch)
{
   21888:	defffc04 	addi	sp,sp,-16
   2188c:	dfc00315 	stw	ra,12(sp)
   21890:	df000215 	stw	fp,8(sp)
   21894:	df000204 	addi	fp,sp,8
   21898:	2005883a 	mov	r2,r4
   2189c:	e0bffe05 	stb	r2,-8(fp)
    bool bPass;
    alt_u8 data = 0;
   218a0:	e03fffc5 	stb	zero,-1(fp)
    alt_u8 CommandCode = COMMAND_CMD | CONTROL_REG ;
   218a4:	00bfe004 	movi	r2,-128
   218a8:	e0bfff85 	stb	r2,-2(fp)

    data = bSwitch ? 0x03 : 0x00 ;
   218ac:	e0bffe03 	ldbu	r2,-8(fp)
   218b0:	10000226 	beq	r2,zero,218bc <Light_PowerSwitch+0x34>
   218b4:	008000c4 	movi	r2,3
   218b8:	00000106 	br	218c0 <Light_PowerSwitch+0x38>
   218bc:	0005883a 	mov	r2,zero
   218c0:	e0bfffc5 	stb	r2,-1(fp)

    bPass = I2C_Write_Light( DEVICE_ADDR,CommandCode , data);
   218c4:	e0bfff83 	ldbu	r2,-2(fp)
   218c8:	e0ffffc3 	ldbu	r3,-1(fp)
   218cc:	180d883a 	mov	r6,r3
   218d0:	100b883a 	mov	r5,r2
   218d4:	01001484 	movi	r4,82
   218d8:	0021d700 	call	21d70 <I2C_Write_Light>
   218dc:	e0bfff45 	stb	r2,-3(fp)

    return bPass;
   218e0:	e0bfff43 	ldbu	r2,-3(fp)
}
   218e4:	e037883a 	mov	sp,fp
   218e8:	dfc00117 	ldw	ra,4(sp)
   218ec:	df000017 	ldw	fp,0(sp)
   218f0:	dec00204 	addi	sp,sp,8
   218f4:	f800283a 	ret

000218f8 <Light_Get_ADCData0>:

bool Light_Get_ADCData0(alt_u16 *pChannelData)
{
   218f8:	defffc04 	addi	sp,sp,-16
   218fc:	dfc00315 	stw	ra,12(sp)
   21900:	df000215 	stw	fp,8(sp)
   21904:	df000204 	addi	fp,sp,8
   21908:	e13ffe15 	stw	r4,-8(fp)
    bool bPass;
    alt_u8 Data0Low, Data0High;
    alt_u8 CommandCode = COMMAND_CMD |  DATA0LOW ;
   2190c:	00bfe304 	movi	r2,-116
   21910:	e0bfffc5 	stb	r2,-1(fp)
    //alt_u8 CommandCode = 0x8C;

    bPass = I2C_Read_Light( DEVICE_ADDR,CommandCode , &Data0Low);
   21914:	e0bfffc3 	ldbu	r2,-1(fp)
   21918:	e0ffff44 	addi	r3,fp,-3
   2191c:	180d883a 	mov	r6,r3
   21920:	100b883a 	mov	r5,r2
   21924:	01001484 	movi	r4,82
   21928:	0021e640 	call	21e64 <I2C_Read_Light>
   2192c:	e0bfff85 	stb	r2,-2(fp)
    if(!bPass)
   21930:	e0bfff83 	ldbu	r2,-2(fp)
   21934:	1080005c 	xori	r2,r2,1
   21938:	10803fcc 	andi	r2,r2,255
   2193c:	10000226 	beq	r2,zero,21948 <Light_Get_ADCData0+0x50>
    {
         return FALSE;
   21940:	0005883a 	mov	r2,zero
   21944:	00002506 	br	219dc <Light_Get_ADCData0+0xe4>
    }
    else *pChannelData = Data0Low;
   21948:	e0bfff43 	ldbu	r2,-3(fp)
   2194c:	10c03fcc 	andi	r3,r2,255
   21950:	e0bffe17 	ldw	r2,-8(fp)
   21954:	10c0000d 	sth	r3,0(r2)

    if(bPass)
   21958:	e0bfff83 	ldbu	r2,-2(fp)
   2195c:	10001426 	beq	r2,zero,219b0 <Light_Get_ADCData0+0xb8>
    {
        CommandCode = COMMAND_CMD |  DATA0HIGH ;
   21960:	00bfe344 	movi	r2,-115
   21964:	e0bfffc5 	stb	r2,-1(fp)
        //CommandCode = 0x8D;

        bPass = I2C_Read_Light( DEVICE_ADDR,CommandCode , &Data0High);
   21968:	e0bfffc3 	ldbu	r2,-1(fp)
   2196c:	e0ffff04 	addi	r3,fp,-4
   21970:	180d883a 	mov	r6,r3
   21974:	100b883a 	mov	r5,r2
   21978:	01001484 	movi	r4,82
   2197c:	0021e640 	call	21e64 <I2C_Read_Light>
   21980:	e0bfff85 	stb	r2,-2(fp)
        if(!bPass)
   21984:	e0bfff83 	ldbu	r2,-2(fp)
   21988:	1080005c 	xori	r2,r2,1
   2198c:	10803fcc 	andi	r2,r2,255
   21990:	10000226 	beq	r2,zero,2199c <Light_Get_ADCData0+0xa4>
        {
            return FALSE;
   21994:	0005883a 	mov	r2,zero
   21998:	00001006 	br	219dc <Light_Get_ADCData0+0xe4>
        }
        else *(pChannelData+1) = Data0High;
   2199c:	e0ffff03 	ldbu	r3,-4(fp)
   219a0:	e0bffe17 	ldw	r2,-8(fp)
   219a4:	10800084 	addi	r2,r2,2
   219a8:	18c03fcc 	andi	r3,r3,255
   219ac:	10c0000d 	sth	r3,0(r2)
    }

    *pChannelData = (Data0High << 8) | Data0Low;
   219b0:	e0bfff03 	ldbu	r2,-4(fp)
   219b4:	10803fcc 	andi	r2,r2,255
   219b8:	1004923a 	slli	r2,r2,8
   219bc:	1007883a 	mov	r3,r2
   219c0:	e0bfff43 	ldbu	r2,-3(fp)
   219c4:	10803fcc 	andi	r2,r2,255
   219c8:	1884b03a 	or	r2,r3,r2
   219cc:	1007883a 	mov	r3,r2
   219d0:	e0bffe17 	ldw	r2,-8(fp)
   219d4:	10c0000d 	sth	r3,0(r2)

    return TRUE;
   219d8:	00800044 	movi	r2,1
}
   219dc:	e037883a 	mov	sp,fp
   219e0:	dfc00117 	ldw	ra,4(sp)
   219e4:	df000017 	ldw	fp,0(sp)
   219e8:	dec00204 	addi	sp,sp,8
   219ec:	f800283a 	ret

000219f0 <Light_Get_ADCData1>:

bool Light_Get_ADCData1(alt_u16 *pChannelData)
{
   219f0:	defffc04 	addi	sp,sp,-16
   219f4:	dfc00315 	stw	ra,12(sp)
   219f8:	df000215 	stw	fp,8(sp)
   219fc:	df000204 	addi	fp,sp,8
   21a00:	e13ffe15 	stw	r4,-8(fp)
    bool bPass;
    alt_u8 Data1Low, Data1High;
    alt_u8 CommandCode = COMMAND_CMD |  DATA1LOW ;
   21a04:	00bfe384 	movi	r2,-114
   21a08:	e0bfffc5 	stb	r2,-1(fp)

    bPass = I2C_Read_Light( DEVICE_ADDR,CommandCode , &Data1Low);
   21a0c:	e0bfffc3 	ldbu	r2,-1(fp)
   21a10:	e0ffff44 	addi	r3,fp,-3
   21a14:	180d883a 	mov	r6,r3
   21a18:	100b883a 	mov	r5,r2
   21a1c:	01001484 	movi	r4,82
   21a20:	0021e640 	call	21e64 <I2C_Read_Light>
   21a24:	e0bfff85 	stb	r2,-2(fp)
    if(!bPass)
   21a28:	e0bfff83 	ldbu	r2,-2(fp)
   21a2c:	1080005c 	xori	r2,r2,1
   21a30:	10803fcc 	andi	r2,r2,255
   21a34:	10000226 	beq	r2,zero,21a40 <Light_Get_ADCData1+0x50>
    {
         return FALSE;
   21a38:	0005883a 	mov	r2,zero
   21a3c:	00002506 	br	21ad4 <Light_Get_ADCData1+0xe4>
    }
    else *pChannelData = Data1Low;
   21a40:	e0bfff43 	ldbu	r2,-3(fp)
   21a44:	10c03fcc 	andi	r3,r2,255
   21a48:	e0bffe17 	ldw	r2,-8(fp)
   21a4c:	10c0000d 	sth	r3,0(r2)

    if(bPass)
   21a50:	e0bfff83 	ldbu	r2,-2(fp)
   21a54:	10001426 	beq	r2,zero,21aa8 <Light_Get_ADCData1+0xb8>
    {
        CommandCode = COMMAND_CMD |  DATA1HIGH ;
   21a58:	00bfe3c4 	movi	r2,-113
   21a5c:	e0bfffc5 	stb	r2,-1(fp)

        bPass = I2C_Read_Light(DEVICE_ADDR,CommandCode , &Data1High);
   21a60:	e0bfffc3 	ldbu	r2,-1(fp)
   21a64:	e0ffff04 	addi	r3,fp,-4
   21a68:	180d883a 	mov	r6,r3
   21a6c:	100b883a 	mov	r5,r2
   21a70:	01001484 	movi	r4,82
   21a74:	0021e640 	call	21e64 <I2C_Read_Light>
   21a78:	e0bfff85 	stb	r2,-2(fp)
        if(!bPass)
   21a7c:	e0bfff83 	ldbu	r2,-2(fp)
   21a80:	1080005c 	xori	r2,r2,1
   21a84:	10803fcc 	andi	r2,r2,255
   21a88:	10000226 	beq	r2,zero,21a94 <Light_Get_ADCData1+0xa4>
        {
            return FALSE;
   21a8c:	0005883a 	mov	r2,zero
   21a90:	00001006 	br	21ad4 <Light_Get_ADCData1+0xe4>
        }
        else *(pChannelData+1) = Data1High;
   21a94:	e0ffff03 	ldbu	r3,-4(fp)
   21a98:	e0bffe17 	ldw	r2,-8(fp)
   21a9c:	10800084 	addi	r2,r2,2
   21aa0:	18c03fcc 	andi	r3,r3,255
   21aa4:	10c0000d 	sth	r3,0(r2)
    }

    *pChannelData = (Data1High << 8) | Data1Low;
   21aa8:	e0bfff03 	ldbu	r2,-4(fp)
   21aac:	10803fcc 	andi	r2,r2,255
   21ab0:	1004923a 	slli	r2,r2,8
   21ab4:	1007883a 	mov	r3,r2
   21ab8:	e0bfff43 	ldbu	r2,-3(fp)
   21abc:	10803fcc 	andi	r2,r2,255
   21ac0:	1884b03a 	or	r2,r3,r2
   21ac4:	1007883a 	mov	r3,r2
   21ac8:	e0bffe17 	ldw	r2,-8(fp)
   21acc:	10c0000d 	sth	r3,0(r2)

    return TRUE;
   21ad0:	00800044 	movi	r2,1
}
   21ad4:	e037883a 	mov	sp,fp
   21ad8:	dfc00117 	ldw	ra,4(sp)
   21adc:	df000017 	ldw	fp,0(sp)
   21ae0:	dec00204 	addi	sp,sp,8
   21ae4:	f800283a 	ret

00021ae8 <Get_light>:

bool Get_light(alt_u16 *light0, alt_u16 *light1)
{
   21ae8:	defffa04 	addi	sp,sp,-24
   21aec:	dfc00515 	stw	ra,20(sp)
   21af0:	df000415 	stw	fp,16(sp)
   21af4:	df000404 	addi	fp,sp,16
   21af8:	e13ffd15 	stw	r4,-12(fp)
   21afc:	e17ffc15 	stw	r5,-16(fp)
    bool bPass = FALSE;
   21b00:	e03fffc5 	stb	zero,-1(fp)
    alt_u8 device_Id = 0;
   21b04:	e03fff85 	stb	zero,-2(fp)

    alt_u16 ChannelData0;
    alt_u16 ChannelData1;

    //get light sensor Id
    Light_GetID(&device_Id);
   21b08:	e0bfff84 	addi	r2,fp,-2
   21b0c:	1009883a 	mov	r4,r2
   21b10:	00217c00 	call	217c0 <Light_GetID>
    if(device_Id == 0)
   21b14:	e0bfff83 	ldbu	r2,-2(fp)
   21b18:	10803fcc 	andi	r2,r2,255
   21b1c:	1000051e 	bne	r2,zero,21b34 <Get_light+0x4c>
    {
        printf("read id fail \n");
   21b20:	01000134 	movhi	r4,4
   21b24:	21210b04 	addi	r4,r4,-31700
   21b28:	002aa480 	call	2aa48 <puts>
        return FALSE;
   21b2c:	0005883a 	mov	r2,zero
   21b30:	00002106 	br	21bb8 <Get_light+0xd0>
    	//printf("Light Sensor ID=%xh\r\n", device_Id); //
    }


    //get adc channel 0 data
    bPass = Light_Get_ADCData0(&ChannelData0);
   21b34:	e0bfff04 	addi	r2,fp,-4
   21b38:	1009883a 	mov	r4,r2
   21b3c:	00218f80 	call	218f8 <Light_Get_ADCData0>
   21b40:	e0bfffc5 	stb	r2,-1(fp)
    if(!bPass)
   21b44:	e0bfffc3 	ldbu	r2,-1(fp)
   21b48:	1080005c 	xori	r2,r2,1
   21b4c:	10803fcc 	andi	r2,r2,255
   21b50:	10000526 	beq	r2,zero,21b68 <Get_light+0x80>
    {
        printf("Get ADC Channle 0 data fail \n");
   21b54:	01000134 	movhi	r4,4
   21b58:	21210f04 	addi	r4,r4,-31684
   21b5c:	002aa480 	call	2aa48 <puts>
        return FALSE;
   21b60:	0005883a 	mov	r2,zero
   21b64:	00001406 	br	21bb8 <Get_light+0xd0>
    }
    *light0 = ChannelData0;
   21b68:	e0ffff0b 	ldhu	r3,-4(fp)
   21b6c:	e0bffd17 	ldw	r2,-12(fp)
   21b70:	10c0000d 	sth	r3,0(r2)

    //get adc channel 1 data
    bPass = Light_Get_ADCData1(&ChannelData1);
   21b74:	e0bffe84 	addi	r2,fp,-6
   21b78:	1009883a 	mov	r4,r2
   21b7c:	00219f00 	call	219f0 <Light_Get_ADCData1>
   21b80:	e0bfffc5 	stb	r2,-1(fp)
    if(!bPass)
   21b84:	e0bfffc3 	ldbu	r2,-1(fp)
   21b88:	1080005c 	xori	r2,r2,1
   21b8c:	10803fcc 	andi	r2,r2,255
   21b90:	10000526 	beq	r2,zero,21ba8 <Get_light+0xc0>
    {
        printf("Get ADC Channle 1 data fail \n");
   21b94:	01000134 	movhi	r4,4
   21b98:	21211704 	addi	r4,r4,-31652
   21b9c:	002aa480 	call	2aa48 <puts>
        return FALSE;
   21ba0:	0005883a 	mov	r2,zero
   21ba4:	00000406 	br	21bb8 <Get_light+0xd0>
    }
    *light1 = ChannelData1;
   21ba8:	e0fffe8b 	ldhu	r3,-6(fp)
   21bac:	e0bffc17 	ldw	r2,-16(fp)
   21bb0:	10c0000d 	sth	r3,0(r2)
    return TRUE;
   21bb4:	00800044 	movi	r2,1
}
   21bb8:	e037883a 	mov	sp,fp
   21bbc:	dfc00117 	ldw	ra,4(sp)
   21bc0:	df000017 	ldw	fp,0(sp)
   21bc4:	dec00204 	addi	sp,sp,8
   21bc8:	f800283a 	ret

00021bcc <Light_SetThreshLow>:


bool Light_SetThreshLow(alt_u8 *pData)
{
   21bcc:	defffc04 	addi	sp,sp,-16
   21bd0:	dfc00315 	stw	ra,12(sp)
   21bd4:	df000215 	stw	fp,8(sp)
   21bd8:	df000204 	addi	fp,sp,8
   21bdc:	e13ffe15 	stw	r4,-8(fp)
    bool bPass;
    alt_u8 CommandCode = COMMAND_CMD | COMMAND_WORD | THRESHLOWLOW_REG ;
   21be0:	00bfe884 	movi	r2,-94
   21be4:	e0bfffc5 	stb	r2,-1(fp)

    bPass = I2C_Write_Light16( DEVICE_ADDR, CommandCode, pData);
   21be8:	e0bfffc3 	ldbu	r2,-1(fp)
   21bec:	e1bffe17 	ldw	r6,-8(fp)
   21bf0:	100b883a 	mov	r5,r2
   21bf4:	01001484 	movi	r4,82
   21bf8:	0021df00 	call	21df0 <I2C_Write_Light16>
   21bfc:	e0bfff85 	stb	r2,-2(fp)
//
//        data = *(pData+1);
//        bPass = I2C_Write_Light(LIGHT_SENSOR_SCL_BASE, LIGHT_SENSOR_SDA_BASE, DEVICE_ADDR,CommandCode , data);
//    }

    return bPass;
   21c00:	e0bfff83 	ldbu	r2,-2(fp)
}
   21c04:	e037883a 	mov	sp,fp
   21c08:	dfc00117 	ldw	ra,4(sp)
   21c0c:	df000017 	ldw	fp,0(sp)
   21c10:	dec00204 	addi	sp,sp,8
   21c14:	f800283a 	ret

00021c18 <Light_SetThreshHigh>:

bool Light_SetThreshHigh(alt_u8 *pData)
{
   21c18:	defffc04 	addi	sp,sp,-16
   21c1c:	dfc00315 	stw	ra,12(sp)
   21c20:	df000215 	stw	fp,8(sp)
   21c24:	df000204 	addi	fp,sp,8
   21c28:	e13ffe15 	stw	r4,-8(fp)
    bool bPass;
    alt_u8 CommandCode = COMMAND_CMD | COMMAND_WORD | THRESHHIGHLOW_REG ;
   21c2c:	00bfe904 	movi	r2,-92
   21c30:	e0bfffc5 	stb	r2,-1(fp)

    bPass = I2C_Write_Light16( DEVICE_ADDR, CommandCode, pData);
   21c34:	e0bfffc3 	ldbu	r2,-1(fp)
   21c38:	e1bffe17 	ldw	r6,-8(fp)
   21c3c:	100b883a 	mov	r5,r2
   21c40:	01001484 	movi	r4,82
   21c44:	0021df00 	call	21df0 <I2C_Write_Light16>
   21c48:	e0bfff85 	stb	r2,-2(fp)
//
//        data = *(pData+1);
//        bPass = I2C_Write_Light(LIGHT_SENSOR_SCL_BASE, LIGHT_SENSOR_SDA_BASE, DEVICE_ADDR,CommandCode , data);
//    }

    return bPass;
   21c4c:	e0bfff83 	ldbu	r2,-2(fp)
}
   21c50:	e037883a 	mov	sp,fp
   21c54:	dfc00117 	ldw	ra,4(sp)
   21c58:	df000017 	ldw	fp,0(sp)
   21c5c:	dec00204 	addi	sp,sp,8
   21c60:	f800283a 	ret

00021c64 <Light_SetInterrupt>:

bool Light_SetInterrupt(alt_u8 data)
{
   21c64:	defffc04 	addi	sp,sp,-16
   21c68:	dfc00315 	stw	ra,12(sp)
   21c6c:	df000215 	stw	fp,8(sp)
   21c70:	df000204 	addi	fp,sp,8
   21c74:	2005883a 	mov	r2,r4
   21c78:	e0bffe05 	stb	r2,-8(fp)
    bool bPass;
    alt_u8 CommandCode = COMMAND_CMD | INTERRUPT_REG ;
   21c7c:	00bfe184 	movi	r2,-122
   21c80:	e0bfffc5 	stb	r2,-1(fp)

    bPass = I2C_Write_Light(DEVICE_ADDR,CommandCode , data);
   21c84:	e0bfffc3 	ldbu	r2,-1(fp)
   21c88:	e0fffe03 	ldbu	r3,-8(fp)
   21c8c:	180d883a 	mov	r6,r3
   21c90:	100b883a 	mov	r5,r2
   21c94:	01001484 	movi	r4,82
   21c98:	0021d700 	call	21d70 <I2C_Write_Light>
   21c9c:	e0bfff85 	stb	r2,-2(fp)

    return bPass;
   21ca0:	e0bfff83 	ldbu	r2,-2(fp)
}
   21ca4:	e037883a 	mov	sp,fp
   21ca8:	dfc00117 	ldw	ra,4(sp)
   21cac:	df000017 	ldw	fp,0(sp)
   21cb0:	dec00204 	addi	sp,sp,8
   21cb4:	f800283a 	ret

00021cb8 <Light_GetInterrupt>:

void Light_GetInterrupt(alt_u8 *data)
{
   21cb8:	defffc04 	addi	sp,sp,-16
   21cbc:	dfc00315 	stw	ra,12(sp)
   21cc0:	df000215 	stw	fp,8(sp)
   21cc4:	df000204 	addi	fp,sp,8
   21cc8:	e13ffe15 	stw	r4,-8(fp)
    bool bPass;
    alt_u8 CommandCode = COMMAND_CMD | INTERRUPT_REG ;
   21ccc:	00bfe184 	movi	r2,-122
   21cd0:	e0bfffc5 	stb	r2,-1(fp)
    //read ID
    bPass = I2C_Read_Light( DEVICE_ADDR,CommandCode , data);
   21cd4:	e0bfffc3 	ldbu	r2,-1(fp)
   21cd8:	e1bffe17 	ldw	r6,-8(fp)
   21cdc:	100b883a 	mov	r5,r2
   21ce0:	01001484 	movi	r4,82
   21ce4:	0021e640 	call	21e64 <I2C_Read_Light>
   21ce8:	e0bfff85 	stb	r2,-2(fp)
    if(!bPass)  *data = 0;
   21cec:	e0bfff83 	ldbu	r2,-2(fp)
   21cf0:	1080005c 	xori	r2,r2,1
   21cf4:	10803fcc 	andi	r2,r2,255
   21cf8:	10000226 	beq	r2,zero,21d04 <Light_GetInterrupt+0x4c>
   21cfc:	e0bffe17 	ldw	r2,-8(fp)
   21d00:	10000005 	stb	zero,0(r2)
}
   21d04:	0001883a 	nop
   21d08:	e037883a 	mov	sp,fp
   21d0c:	dfc00117 	ldw	ra,4(sp)
   21d10:	df000017 	ldw	fp,0(sp)
   21d14:	dec00204 	addi	sp,sp,8
   21d18:	f800283a 	ret

00021d1c <Light_SetTiming>:

bool Light_SetTiming(alt_u8 data)
{
   21d1c:	defffc04 	addi	sp,sp,-16
   21d20:	dfc00315 	stw	ra,12(sp)
   21d24:	df000215 	stw	fp,8(sp)
   21d28:	df000204 	addi	fp,sp,8
   21d2c:	2005883a 	mov	r2,r4
   21d30:	e0bffe05 	stb	r2,-8(fp)
    bool bPass;
    alt_u8 CommandCode = COMMAND_CMD | TIMING_REG ;
   21d34:	00bfe044 	movi	r2,-127
   21d38:	e0bfffc5 	stb	r2,-1(fp)

    bPass = I2C_Write_Light( DEVICE_ADDR,CommandCode , data);
   21d3c:	e0bfffc3 	ldbu	r2,-1(fp)
   21d40:	e0fffe03 	ldbu	r3,-8(fp)
   21d44:	180d883a 	mov	r6,r3
   21d48:	100b883a 	mov	r5,r2
   21d4c:	01001484 	movi	r4,82
   21d50:	0021d700 	call	21d70 <I2C_Write_Light>
   21d54:	e0bfff85 	stb	r2,-2(fp)

    return bPass;
   21d58:	e0bfff83 	ldbu	r2,-2(fp)
}
   21d5c:	e037883a 	mov	sp,fp
   21d60:	dfc00117 	ldw	ra,4(sp)
   21d64:	df000017 	ldw	fp,0(sp)
   21d68:	dec00204 	addi	sp,sp,8
   21d6c:	f800283a 	ret

00021d70 <I2C_Write_Light>:

/////////////////////////////////////////////
// internal
////////////////light sensor
bool I2C_Write_Light(alt_8 DeviceAddr, alt_u8 CommandCode, alt_u8 ControlData){
   21d70:	defff904 	addi	sp,sp,-28
   21d74:	dfc00615 	stw	ra,24(sp)
   21d78:	df000515 	stw	fp,20(sp)
   21d7c:	df000504 	addi	fp,sp,20
   21d80:	2005883a 	mov	r2,r4
   21d84:	2809883a 	mov	r4,r5
   21d88:	3007883a 	mov	r3,r6
   21d8c:	e0bffe05 	stb	r2,-8(fp)
   21d90:	2005883a 	mov	r2,r4
   21d94:	e0bffd05 	stb	r2,-12(fp)
   21d98:	1805883a 	mov	r2,r3
   21d9c:	e0bffc05 	stb	r2,-16(fp)
	bool bSuccess;

	bSuccess = OC_I2C_Write(Light_I2C_Controller_Base,DeviceAddr,CommandCode, &ControlData, 1);
   21da0:	d0a00217 	ldw	r2,-32760(gp)
   21da4:	1011883a 	mov	r8,r2
   21da8:	e0bffe03 	ldbu	r2,-8(fp)
   21dac:	10c03fcc 	andi	r3,r2,255
   21db0:	e13ffd03 	ldbu	r4,-12(fp)
   21db4:	e17ffc04 	addi	r5,fp,-16
   21db8:	00800044 	movi	r2,1
   21dbc:	d8800015 	stw	r2,0(sp)
   21dc0:	280f883a 	mov	r7,r5
   21dc4:	200d883a 	mov	r6,r4
   21dc8:	180b883a 	mov	r5,r3
   21dcc:	4009883a 	mov	r4,r8
   21dd0:	0020b000 	call	20b00 <OC_I2C_Write>
   21dd4:	e0bfffc5 	stb	r2,-1(fp)

    return bSuccess;
   21dd8:	e0bfffc3 	ldbu	r2,-1(fp)


}
   21ddc:	e037883a 	mov	sp,fp
   21de0:	dfc00117 	ldw	ra,4(sp)
   21de4:	df000017 	ldw	fp,0(sp)
   21de8:	dec00204 	addi	sp,sp,8
   21dec:	f800283a 	ret

00021df0 <I2C_Write_Light16>:

bool I2C_Write_Light16(alt_8 DeviceAddr, alt_u8 CommandCode, alt_u8 *pControlData){
   21df0:	defff904 	addi	sp,sp,-28
   21df4:	dfc00615 	stw	ra,24(sp)
   21df8:	df000515 	stw	fp,20(sp)
   21dfc:	df000504 	addi	fp,sp,20
   21e00:	2005883a 	mov	r2,r4
   21e04:	2807883a 	mov	r3,r5
   21e08:	e1bffc15 	stw	r6,-16(fp)
   21e0c:	e0bffe05 	stb	r2,-8(fp)
   21e10:	1805883a 	mov	r2,r3
   21e14:	e0bffd05 	stb	r2,-12(fp)
	bool bSuccess;

	bSuccess = OC_I2C_Write(Light_I2C_Controller_Base,DeviceAddr,CommandCode, pControlData, 2);
   21e18:	d0a00217 	ldw	r2,-32760(gp)
   21e1c:	1011883a 	mov	r8,r2
   21e20:	e0bffe03 	ldbu	r2,-8(fp)
   21e24:	10c03fcc 	andi	r3,r2,255
   21e28:	e13ffd03 	ldbu	r4,-12(fp)
   21e2c:	00800084 	movi	r2,2
   21e30:	d8800015 	stw	r2,0(sp)
   21e34:	e1fffc17 	ldw	r7,-16(fp)
   21e38:	200d883a 	mov	r6,r4
   21e3c:	180b883a 	mov	r5,r3
   21e40:	4009883a 	mov	r4,r8
   21e44:	0020b000 	call	20b00 <OC_I2C_Write>
   21e48:	e0bfffc5 	stb	r2,-1(fp)

    return bSuccess;
   21e4c:	e0bfffc3 	ldbu	r2,-1(fp)


}
   21e50:	e037883a 	mov	sp,fp
   21e54:	dfc00117 	ldw	ra,4(sp)
   21e58:	df000017 	ldw	fp,0(sp)
   21e5c:	dec00204 	addi	sp,sp,8
   21e60:	f800283a 	ret

00021e64 <I2C_Read_Light>:

bool I2C_Read_Light(alt_8 DeviceAddr, alt_u8 CommandCode, alt_u8 *pControlData){
   21e64:	defff904 	addi	sp,sp,-28
   21e68:	dfc00615 	stw	ra,24(sp)
   21e6c:	df000515 	stw	fp,20(sp)
   21e70:	df000504 	addi	fp,sp,20
   21e74:	2005883a 	mov	r2,r4
   21e78:	2807883a 	mov	r3,r5
   21e7c:	e1bffc15 	stw	r6,-16(fp)
   21e80:	e0bffe05 	stb	r2,-8(fp)
   21e84:	1805883a 	mov	r2,r3
   21e88:	e0bffd05 	stb	r2,-12(fp)
    bool bSuccess;

    bSuccess = OC_I2C_Read(Light_I2C_Controller_Base,DeviceAddr,CommandCode, pControlData, 1);
   21e8c:	d0a00217 	ldw	r2,-32760(gp)
   21e90:	1011883a 	mov	r8,r2
   21e94:	e0bffe03 	ldbu	r2,-8(fp)
   21e98:	10c03fcc 	andi	r3,r2,255
   21e9c:	e13ffd03 	ldbu	r4,-12(fp)
   21ea0:	00800044 	movi	r2,1
   21ea4:	d8800015 	stw	r2,0(sp)
   21ea8:	e1fffc17 	ldw	r7,-16(fp)
   21eac:	200d883a 	mov	r6,r4
   21eb0:	180b883a 	mov	r5,r3
   21eb4:	4009883a 	mov	r4,r8
   21eb8:	0020db40 	call	20db4 <OC_I2C_Read>
   21ebc:	e0bfffc5 	stb	r2,-1(fp)

    return bSuccess;
   21ec0:	e0bfffc3 	ldbu	r2,-1(fp)
}
   21ec4:	e037883a 	mov	sp,fp
   21ec8:	dfc00117 	ldw	ra,4(sp)
   21ecc:	df000017 	ldw	fp,0(sp)
   21ed0:	dec00204 	addi	sp,sp,8
   21ed4:	f800283a 	ret

00021ed8 <convert_light_lux>:
static struct {
	unsigned int adc[3][2];
	float co[2];
}custom_thresh;

bool convert_light_lux(int light0, int light1, float *lux) {
   21ed8:	defff604 	addi	sp,sp,-40
   21edc:	dfc00915 	stw	ra,36(sp)
   21ee0:	df000815 	stw	fp,32(sp)
   21ee4:	dcc00715 	stw	r19,28(sp)
   21ee8:	dc800615 	stw	r18,24(sp)
   21eec:	dc400515 	stw	r17,20(sp)
   21ef0:	dc000415 	stw	r16,16(sp)
   21ef4:	df000804 	addi	fp,sp,32
   21ef8:	e13ffa15 	stw	r4,-24(fp)
   21efc:	e17ff915 	stw	r5,-28(fp)
   21f00:	e1bff815 	stw	r6,-32(fp)
	float condition = (float) light1 / (float) light0;
   21f04:	e13ff917 	ldw	r4,-28(fp)
   21f08:	0027f000 	call	27f00 <__floatsisf>
   21f0c:	1021883a 	mov	r16,r2
   21f10:	e13ffa17 	ldw	r4,-24(fp)
   21f14:	0027f000 	call	27f00 <__floatsisf>
   21f18:	1007883a 	mov	r3,r2
   21f1c:	180b883a 	mov	r5,r3
   21f20:	8009883a 	mov	r4,r16
   21f24:	0026fe00 	call	26fe0 <__divsf3>
   21f28:	1007883a 	mov	r3,r2
   21f2c:	e0fffb15 	stw	r3,-20(fp)
	if (0 < condition && condition <= 0.50)
   21f30:	000b883a 	mov	r5,zero
   21f34:	e13ffb17 	ldw	r4,-20(fp)
   21f38:	00274440 	call	27444 <__gesf2>
   21f3c:	0080440e 	bge	zero,r2,22050 <convert_light_lux+0x178>
   21f40:	014fc034 	movhi	r5,16128
   21f44:	e13ffb17 	ldw	r4,-20(fp)
   21f48:	00274fc0 	call	274fc <__lesf2>
   21f4c:	00804016 	blt	zero,r2,22050 <convert_light_lux+0x178>
		*lux = (0.0304 * light0) - (0.062 * light0 * powf(condition, 1.4));
   21f50:	e13ffa17 	ldw	r4,-24(fp)
   21f54:	002a5700 	call	2a570 <__floatsidf>
   21f58:	1011883a 	mov	r8,r2
   21f5c:	1813883a 	mov	r9,r3
   21f60:	019dccb4 	movhi	r6,30514
   21f64:	31a3f144 	addi	r6,r6,-28731
   21f68:	01cfe7f4 	movhi	r7,16287
   21f6c:	39c84b44 	addi	r7,r7,8493
   21f70:	4009883a 	mov	r4,r8
   21f74:	480b883a 	mov	r5,r9
   21f78:	00295100 	call	29510 <__muldf3>
   21f7c:	1009883a 	mov	r4,r2
   21f80:	180b883a 	mov	r5,r3
   21f84:	2021883a 	mov	r16,r4
   21f88:	2823883a 	mov	r17,r5
   21f8c:	e13ffa17 	ldw	r4,-24(fp)
   21f90:	002a5700 	call	2a570 <__floatsidf>
   21f94:	1011883a 	mov	r8,r2
   21f98:	1813883a 	mov	r9,r3
   21f9c:	01b22d34 	movhi	r6,51380
   21fa0:	318e5604 	addi	r6,r6,14680
   21fa4:	01cfec34 	movhi	r7,16304
   21fa8:	39ef9d84 	addi	r7,r7,-16778
   21fac:	4009883a 	mov	r4,r8
   21fb0:	480b883a 	mov	r5,r9
   21fb4:	00295100 	call	29510 <__muldf3>
   21fb8:	1009883a 	mov	r4,r2
   21fbc:	180b883a 	mov	r5,r3
   21fc0:	2025883a 	mov	r18,r4
   21fc4:	2827883a 	mov	r19,r5
   21fc8:	014fecf4 	movhi	r5,16307
   21fcc:	294cccc4 	addi	r5,r5,13107
   21fd0:	e13ffb17 	ldw	r4,-20(fp)
   21fd4:	002583c0 	call	2583c <powf>
   21fd8:	1007883a 	mov	r3,r2
   21fdc:	1809883a 	mov	r4,r3
   21fe0:	002a6280 	call	2a628 <__extendsfdf2>
   21fe4:	1009883a 	mov	r4,r2
   21fe8:	180b883a 	mov	r5,r3
   21fec:	200d883a 	mov	r6,r4
   21ff0:	280f883a 	mov	r7,r5
   21ff4:	9009883a 	mov	r4,r18
   21ff8:	980b883a 	mov	r5,r19
   21ffc:	00295100 	call	29510 <__muldf3>
   22000:	1009883a 	mov	r4,r2
   22004:	180b883a 	mov	r5,r3
   22008:	2005883a 	mov	r2,r4
   2200c:	2807883a 	mov	r3,r5
   22010:	100d883a 	mov	r6,r2
   22014:	180f883a 	mov	r7,r3
   22018:	8009883a 	mov	r4,r16
   2201c:	880b883a 	mov	r5,r17
   22020:	0029cbc0 	call	29cbc <__subdf3>
   22024:	1009883a 	mov	r4,r2
   22028:	180b883a 	mov	r5,r3
   2202c:	2005883a 	mov	r2,r4
   22030:	2807883a 	mov	r3,r5
   22034:	1009883a 	mov	r4,r2
   22038:	180b883a 	mov	r5,r3
   2203c:	002a7240 	call	2a724 <__truncdfsf2>
   22040:	1007883a 	mov	r3,r2
   22044:	e0bff817 	ldw	r2,-32(fp)
   22048:	10c00015 	stw	r3,0(r2)
   2204c:	0000cc06 	br	22380 <convert_light_lux+0x4a8>
	else if (0.50 < condition && condition <= 0.61)
   22050:	014fc034 	movhi	r5,16128
   22054:	e13ffb17 	ldw	r4,-20(fp)
   22058:	00274440 	call	27444 <__gesf2>
   2205c:	00803a0e 	bge	zero,r2,22148 <convert_light_lux+0x270>
   22060:	e13ffb17 	ldw	r4,-20(fp)
   22064:	002a6280 	call	2a628 <__extendsfdf2>
   22068:	1011883a 	mov	r8,r2
   2206c:	1813883a 	mov	r9,r3
   22070:	01ae14b4 	movhi	r6,47186
   22074:	31bae144 	addi	r6,r6,-5243
   22078:	01cff934 	movhi	r7,16356
   2207c:	39e14784 	addi	r7,r7,-31458
   22080:	4009883a 	mov	r4,r8
   22084:	480b883a 	mov	r5,r9
   22088:	00294280 	call	29428 <__ledf2>
   2208c:	00802e16 	blt	zero,r2,22148 <convert_light_lux+0x270>
		*lux = (0.0224 * light0) - (0.031 * light1);
   22090:	e13ffa17 	ldw	r4,-24(fp)
   22094:	002a5700 	call	2a570 <__floatsidf>
   22098:	1011883a 	mov	r8,r2
   2209c:	1813883a 	mov	r9,r3
   220a0:	01a36e74 	movhi	r6,36281
   220a4:	31aeb1c4 	addi	r6,r6,-17721
   220a8:	01cfe5f4 	movhi	r7,16279
   220ac:	39fc0184 	addi	r7,r7,-4090
   220b0:	4009883a 	mov	r4,r8
   220b4:	480b883a 	mov	r5,r9
   220b8:	00295100 	call	29510 <__muldf3>
   220bc:	1009883a 	mov	r4,r2
   220c0:	180b883a 	mov	r5,r3
   220c4:	2021883a 	mov	r16,r4
   220c8:	2823883a 	mov	r17,r5
   220cc:	e13ff917 	ldw	r4,-28(fp)
   220d0:	002a5700 	call	2a570 <__floatsidf>
   220d4:	1011883a 	mov	r8,r2
   220d8:	1813883a 	mov	r9,r3
   220dc:	01b22d34 	movhi	r6,51380
   220e0:	318e5604 	addi	r6,r6,14680
   220e4:	01cfe834 	movhi	r7,16288
   220e8:	39ef9d84 	addi	r7,r7,-16778
   220ec:	4009883a 	mov	r4,r8
   220f0:	480b883a 	mov	r5,r9
   220f4:	00295100 	call	29510 <__muldf3>
   220f8:	1009883a 	mov	r4,r2
   220fc:	180b883a 	mov	r5,r3
   22100:	2005883a 	mov	r2,r4
   22104:	2807883a 	mov	r3,r5
   22108:	100d883a 	mov	r6,r2
   2210c:	180f883a 	mov	r7,r3
   22110:	8009883a 	mov	r4,r16
   22114:	880b883a 	mov	r5,r17
   22118:	0029cbc0 	call	29cbc <__subdf3>
   2211c:	1009883a 	mov	r4,r2
   22120:	180b883a 	mov	r5,r3
   22124:	2005883a 	mov	r2,r4
   22128:	2807883a 	mov	r3,r5
   2212c:	1009883a 	mov	r4,r2
   22130:	180b883a 	mov	r5,r3
   22134:	002a7240 	call	2a724 <__truncdfsf2>
   22138:	1007883a 	mov	r3,r2
   2213c:	e0bff817 	ldw	r2,-32(fp)
   22140:	10c00015 	stw	r3,0(r2)
   22144:	00008e06 	br	22380 <convert_light_lux+0x4a8>
	else if (0.61 < condition && condition <= 0.80)
   22148:	e13ffb17 	ldw	r4,-20(fp)
   2214c:	002a6280 	call	2a628 <__extendsfdf2>
   22150:	1011883a 	mov	r8,r2
   22154:	1813883a 	mov	r9,r3
   22158:	01ae14b4 	movhi	r6,47186
   2215c:	31bae144 	addi	r6,r6,-5243
   22160:	01cff934 	movhi	r7,16356
   22164:	39e14784 	addi	r7,r7,-31458
   22168:	4009883a 	mov	r4,r8
   2216c:	480b883a 	mov	r5,r9
   22170:	00293400 	call	29340 <__gedf2>
   22174:	00803a0e 	bge	zero,r2,22260 <convert_light_lux+0x388>
   22178:	e13ffb17 	ldw	r4,-20(fp)
   2217c:	002a6280 	call	2a628 <__extendsfdf2>
   22180:	1011883a 	mov	r8,r2
   22184:	1813883a 	mov	r9,r3
   22188:	01a666b4 	movhi	r6,39322
   2218c:	31a66684 	addi	r6,r6,-26214
   22190:	01cffab4 	movhi	r7,16362
   22194:	39e66644 	addi	r7,r7,-26215
   22198:	4009883a 	mov	r4,r8
   2219c:	480b883a 	mov	r5,r9
   221a0:	00294280 	call	29428 <__ledf2>
   221a4:	00802e16 	blt	zero,r2,22260 <convert_light_lux+0x388>
		*lux = (0.0128 * light0) - (0.0153 * light1);
   221a8:	e13ffa17 	ldw	r4,-24(fp)
   221ac:	002a5700 	call	2a570 <__floatsidf>
   221b0:	1011883a 	mov	r8,r2
   221b4:	1813883a 	mov	r9,r3
   221b8:	01bac734 	movhi	r6,60188
   221bc:	3190cb44 	addi	r6,r6,17197
   221c0:	01cfe2b4 	movhi	r7,16266
   221c4:	39cdb884 	addi	r7,r7,14050
   221c8:	4009883a 	mov	r4,r8
   221cc:	480b883a 	mov	r5,r9
   221d0:	00295100 	call	29510 <__muldf3>
   221d4:	1009883a 	mov	r4,r2
   221d8:	180b883a 	mov	r5,r3
   221dc:	2021883a 	mov	r16,r4
   221e0:	2823883a 	mov	r17,r5
   221e4:	e13ff917 	ldw	r4,-28(fp)
   221e8:	002a5700 	call	2a570 <__floatsidf>
   221ec:	1011883a 	mov	r8,r2
   221f0:	1813883a 	mov	r9,r3
   221f4:	018f4234 	movhi	r6,15624
   221f8:	31b212c4 	addi	r6,r6,-14261
   221fc:	01cfe3f4 	movhi	r7,16271
   22200:	39d566c4 	addi	r7,r7,21915
   22204:	4009883a 	mov	r4,r8
   22208:	480b883a 	mov	r5,r9
   2220c:	00295100 	call	29510 <__muldf3>
   22210:	1009883a 	mov	r4,r2
   22214:	180b883a 	mov	r5,r3
   22218:	2005883a 	mov	r2,r4
   2221c:	2807883a 	mov	r3,r5
   22220:	100d883a 	mov	r6,r2
   22224:	180f883a 	mov	r7,r3
   22228:	8009883a 	mov	r4,r16
   2222c:	880b883a 	mov	r5,r17
   22230:	0029cbc0 	call	29cbc <__subdf3>
   22234:	1009883a 	mov	r4,r2
   22238:	180b883a 	mov	r5,r3
   2223c:	2005883a 	mov	r2,r4
   22240:	2807883a 	mov	r3,r5
   22244:	1009883a 	mov	r4,r2
   22248:	180b883a 	mov	r5,r3
   2224c:	002a7240 	call	2a724 <__truncdfsf2>
   22250:	1007883a 	mov	r3,r2
   22254:	e0bff817 	ldw	r2,-32(fp)
   22258:	10c00015 	stw	r3,0(r2)
   2225c:	00004806 	br	22380 <convert_light_lux+0x4a8>
	else if (0.80 < condition && condition <= 1.30)
   22260:	e13ffb17 	ldw	r4,-20(fp)
   22264:	002a6280 	call	2a628 <__extendsfdf2>
   22268:	1011883a 	mov	r8,r2
   2226c:	1813883a 	mov	r9,r3
   22270:	01a666b4 	movhi	r6,39322
   22274:	31a66684 	addi	r6,r6,-26214
   22278:	01cffab4 	movhi	r7,16362
   2227c:	39e66644 	addi	r7,r7,-26215
   22280:	4009883a 	mov	r4,r8
   22284:	480b883a 	mov	r5,r9
   22288:	00293400 	call	29340 <__gedf2>
   2228c:	00803a0e 	bge	zero,r2,22378 <convert_light_lux+0x4a0>
   22290:	e13ffb17 	ldw	r4,-20(fp)
   22294:	002a6280 	call	2a628 <__extendsfdf2>
   22298:	1011883a 	mov	r8,r2
   2229c:	1813883a 	mov	r9,r3
   222a0:	01b33374 	movhi	r6,52429
   222a4:	31b33344 	addi	r6,r6,-13107
   222a8:	01cffd74 	movhi	r7,16373
   222ac:	39f33304 	addi	r7,r7,-13108
   222b0:	4009883a 	mov	r4,r8
   222b4:	480b883a 	mov	r5,r9
   222b8:	00294280 	call	29428 <__ledf2>
   222bc:	00802e16 	blt	zero,r2,22378 <convert_light_lux+0x4a0>
		*lux = (0.00146 * light1) - (0.00112 * light1);
   222c0:	e13ff917 	ldw	r4,-28(fp)
   222c4:	002a5700 	call	2a570 <__floatsidf>
   222c8:	1011883a 	mov	r8,r2
   222cc:	1813883a 	mov	r9,r3
   222d0:	018408f4 	movhi	r6,4131
   222d4:	3198ec84 	addi	r6,r6,25522
   222d8:	01cfd634 	movhi	r7,16216
   222dc:	39faebc4 	addi	r7,r7,-5201
   222e0:	4009883a 	mov	r4,r8
   222e4:	480b883a 	mov	r5,r9
   222e8:	00295100 	call	29510 <__muldf3>
   222ec:	1009883a 	mov	r4,r2
   222f0:	180b883a 	mov	r5,r3
   222f4:	2021883a 	mov	r16,r4
   222f8:	2823883a 	mov	r17,r5
   222fc:	e13ff917 	ldw	r4,-28(fp)
   22300:	002a5700 	call	2a570 <__floatsidf>
   22304:	1011883a 	mov	r8,r2
   22308:	1813883a 	mov	r9,r3
   2230c:	01b5f1f4 	movhi	r6,55239
   22310:	31bef484 	addi	r6,r6,-1070
   22314:	01cfd4b4 	movhi	r7,16210
   22318:	39d66784 	addi	r7,r7,22942
   2231c:	4009883a 	mov	r4,r8
   22320:	480b883a 	mov	r5,r9
   22324:	00295100 	call	29510 <__muldf3>
   22328:	1009883a 	mov	r4,r2
   2232c:	180b883a 	mov	r5,r3
   22330:	2005883a 	mov	r2,r4
   22334:	2807883a 	mov	r3,r5
   22338:	100d883a 	mov	r6,r2
   2233c:	180f883a 	mov	r7,r3
   22340:	8009883a 	mov	r4,r16
   22344:	880b883a 	mov	r5,r17
   22348:	0029cbc0 	call	29cbc <__subdf3>
   2234c:	1009883a 	mov	r4,r2
   22350:	180b883a 	mov	r5,r3
   22354:	2005883a 	mov	r2,r4
   22358:	2807883a 	mov	r3,r5
   2235c:	1009883a 	mov	r4,r2
   22360:	180b883a 	mov	r5,r3
   22364:	002a7240 	call	2a724 <__truncdfsf2>
   22368:	1007883a 	mov	r3,r2
   2236c:	e0bff817 	ldw	r2,-32(fp)
   22370:	10c00015 	stw	r3,0(r2)
   22374:	00000206 	br	22380 <convert_light_lux+0x4a8>
	else
		*lux = 0;
   22378:	e0bff817 	ldw	r2,-32(fp)
   2237c:	10000015 	stw	zero,0(r2)
	return TRUE;
   22380:	00800044 	movi	r2,1
}
   22384:	e6fffc04 	addi	sp,fp,-16
   22388:	dfc00517 	ldw	ra,20(sp)
   2238c:	df000417 	ldw	fp,16(sp)
   22390:	dcc00317 	ldw	r19,12(sp)
   22394:	dc800217 	ldw	r18,8(sp)
   22398:	dc400117 	ldw	r17,4(sp)
   2239c:	dc000017 	ldw	r16,0(sp)
   223a0:	dec00604 	addi	sp,sp,24
   223a4:	f800283a 	ret

000223a8 <set_thresh>:

void set_thresh(void) {
   223a8:	defff404 	addi	sp,sp,-48
   223ac:	df000b15 	stw	fp,44(sp)
   223b0:	df000b04 	addi	fp,sp,44
		unsigned u;
		float f;
	} uf;

	// Light threshold
	offst = LIGHT0_SENSOR_L_THRESH >> 2;
   223b4:	00802004 	movi	r2,128
   223b8:	e0bfff15 	stw	r2,-4(fp)
	for (int i = 0; i < 2; i++) {
   223bc:	e03ffe15 	stw	zero,-8(fp)
   223c0:	00000e06 	br	223fc <set_thresh+0x54>
		thresh.light[0][i] = IORD(NIOS_SYSTEM_SHARED_MEMORY_BASE, offst++);
   223c4:	e0bfff17 	ldw	r2,-4(fp)
   223c8:	10c00044 	addi	r3,r2,1
   223cc:	e0ffff15 	stw	r3,-4(fp)
   223d0:	100490ba 	slli	r2,r2,2
   223d4:	10880004 	addi	r2,r2,8192
   223d8:	10c00037 	ldwio	r3,0(r2)
   223dc:	e0bffe17 	ldw	r2,-8(fp)
   223e0:	100890ba 	slli	r4,r2,2
   223e4:	00800134 	movhi	r2,4
   223e8:	2085883a 	add	r2,r4,r2
   223ec:	10f24f15 	stw	r3,-14020(r2)
	for (int i = 0; i < 2; i++) {
   223f0:	e0bffe17 	ldw	r2,-8(fp)
   223f4:	10800044 	addi	r2,r2,1
   223f8:	e0bffe15 	stw	r2,-8(fp)
   223fc:	e0bffe17 	ldw	r2,-8(fp)
   22400:	10800090 	cmplti	r2,r2,2
   22404:	103fef1e 	bne	r2,zero,223c4 <set_thresh+0x1c>
	}
	offst = LIGHT1_SENSOR_L_THRESH >> 2;
   22408:	00802084 	movi	r2,130
   2240c:	e0bfff15 	stw	r2,-4(fp)
	for (int i = 0; i < 2; i++) {
   22410:	e03ffd15 	stw	zero,-12(fp)
   22414:	00000f06 	br	22454 <set_thresh+0xac>
		thresh.light[1][i] = IORD(NIOS_SYSTEM_SHARED_MEMORY_BASE, offst++);
   22418:	e0bfff17 	ldw	r2,-4(fp)
   2241c:	10c00044 	addi	r3,r2,1
   22420:	e0ffff15 	stw	r3,-4(fp)
   22424:	100490ba 	slli	r2,r2,2
   22428:	10880004 	addi	r2,r2,8192
   2242c:	10c00037 	ldwio	r3,0(r2)
   22430:	e0bffd17 	ldw	r2,-12(fp)
   22434:	10800084 	addi	r2,r2,2
   22438:	100890ba 	slli	r4,r2,2
   2243c:	00800134 	movhi	r2,4
   22440:	2085883a 	add	r2,r4,r2
   22444:	10f24f15 	stw	r3,-14020(r2)
	for (int i = 0; i < 2; i++) {
   22448:	e0bffd17 	ldw	r2,-12(fp)
   2244c:	10800044 	addi	r2,r2,1
   22450:	e0bffd15 	stw	r2,-12(fp)
   22454:	e0bffd17 	ldw	r2,-12(fp)
   22458:	10800090 	cmplti	r2,r2,2
   2245c:	103fee1e 	bne	r2,zero,22418 <set_thresh+0x70>
	}
	offst = LUX_SENSOR_L_THRESH >> 2;
   22460:	00802104 	movi	r2,132
   22464:	e0bfff15 	stw	r2,-4(fp)
	for (int i = 0; i < 2; i++) {
   22468:	e03ffc15 	stw	zero,-16(fp)
   2246c:	00001106 	br	224b4 <set_thresh+0x10c>
		uf.u = IORD(NIOS_SYSTEM_SHARED_MEMORY_BASE, offst++);
   22470:	e0bfff17 	ldw	r2,-4(fp)
   22474:	10c00044 	addi	r3,r2,1
   22478:	e0ffff15 	stw	r3,-4(fp)
   2247c:	100490ba 	slli	r2,r2,2
   22480:	10880004 	addi	r2,r2,8192
   22484:	10800037 	ldwio	r2,0(r2)
   22488:	e0bff515 	stw	r2,-44(fp)
		thresh.lux[i] = uf.f;
   2248c:	e0fff517 	ldw	r3,-44(fp)
   22490:	e0bffc17 	ldw	r2,-16(fp)
   22494:	10800104 	addi	r2,r2,4
   22498:	100890ba 	slli	r4,r2,2
   2249c:	00800134 	movhi	r2,4
   224a0:	2085883a 	add	r2,r4,r2
   224a4:	10f24f15 	stw	r3,-14020(r2)
	for (int i = 0; i < 2; i++) {
   224a8:	e0bffc17 	ldw	r2,-16(fp)
   224ac:	10800044 	addi	r2,r2,1
   224b0:	e0bffc15 	stw	r2,-16(fp)
   224b4:	e0bffc17 	ldw	r2,-16(fp)
   224b8:	10800090 	cmplti	r2,r2,2
   224bc:	103fec1e 	bne	r2,zero,22470 <set_thresh+0xc8>
	}

	// Temp. HM. threshold
	offst = HUMIDI_SENSOR_L_THRESH >> 2;
   224c0:	00802184 	movi	r2,134
   224c4:	e0bfff15 	stw	r2,-4(fp)
	for (int i = 0; i < 2; i++) {
   224c8:	e03ffb15 	stw	zero,-20(fp)
   224cc:	00001106 	br	22514 <set_thresh+0x16c>
		uf.u = IORD(NIOS_SYSTEM_SHARED_MEMORY_BASE, offst++);
   224d0:	e0bfff17 	ldw	r2,-4(fp)
   224d4:	10c00044 	addi	r3,r2,1
   224d8:	e0ffff15 	stw	r3,-4(fp)
   224dc:	100490ba 	slli	r2,r2,2
   224e0:	10880004 	addi	r2,r2,8192
   224e4:	10800037 	ldwio	r2,0(r2)
   224e8:	e0bff515 	stw	r2,-44(fp)
		thresh.fHumidity[i] = uf.f;
   224ec:	e0fff517 	ldw	r3,-44(fp)
   224f0:	e0bffb17 	ldw	r2,-20(fp)
   224f4:	10800204 	addi	r2,r2,8
   224f8:	100890ba 	slli	r4,r2,2
   224fc:	00800134 	movhi	r2,4
   22500:	2085883a 	add	r2,r4,r2
   22504:	10f24f15 	stw	r3,-14020(r2)
	for (int i = 0; i < 2; i++) {
   22508:	e0bffb17 	ldw	r2,-20(fp)
   2250c:	10800044 	addi	r2,r2,1
   22510:	e0bffb15 	stw	r2,-20(fp)
   22514:	e0bffb17 	ldw	r2,-20(fp)
   22518:	10800090 	cmplti	r2,r2,2
   2251c:	103fec1e 	bne	r2,zero,224d0 <set_thresh+0x128>
	}
	offst = TEMPER_SENSOR_L_THRESH >> 2;
   22520:	00802204 	movi	r2,136
   22524:	e0bfff15 	stw	r2,-4(fp)
	for (int i = 0; i < 2; i++) {
   22528:	e03ffa15 	stw	zero,-24(fp)
   2252c:	00001106 	br	22574 <set_thresh+0x1cc>
		uf.u = IORD(NIOS_SYSTEM_SHARED_MEMORY_BASE, offst++);
   22530:	e0bfff17 	ldw	r2,-4(fp)
   22534:	10c00044 	addi	r3,r2,1
   22538:	e0ffff15 	stw	r3,-4(fp)
   2253c:	100490ba 	slli	r2,r2,2
   22540:	10880004 	addi	r2,r2,8192
   22544:	10800037 	ldwio	r2,0(r2)
   22548:	e0bff515 	stw	r2,-44(fp)
		thresh.fTemperature[i] = uf.f;
   2254c:	e0fff517 	ldw	r3,-44(fp)
   22550:	e0bffa17 	ldw	r2,-24(fp)
   22554:	10800184 	addi	r2,r2,6
   22558:	100890ba 	slli	r4,r2,2
   2255c:	00800134 	movhi	r2,4
   22560:	2085883a 	add	r2,r4,r2
   22564:	10f24f15 	stw	r3,-14020(r2)
	for (int i = 0; i < 2; i++) {
   22568:	e0bffa17 	ldw	r2,-24(fp)
   2256c:	10800044 	addi	r2,r2,1
   22570:	e0bffa15 	stw	r2,-24(fp)
   22574:	e0bffa17 	ldw	r2,-24(fp)
   22578:	10800090 	cmplti	r2,r2,2
   2257c:	103fec1e 	bne	r2,zero,22530 <set_thresh+0x188>
	}

	// 9-axis threshold
	offst = ACCEL_X_SENSOR_L_THRESH >> 2;
   22580:	00802284 	movi	r2,138
   22584:	e0bfff15 	stw	r2,-4(fp)
	float *fp = &thresh.a[0][0];
   22588:	00800134 	movhi	r2,4
   2258c:	10b25904 	addi	r2,r2,-13980
   22590:	e0bff915 	stw	r2,-28(fp)
	for (int i = 0; i < 6; i++) {
   22594:	e03ff815 	stw	zero,-32(fp)
   22598:	00000f06 	br	225d8 <set_thresh+0x230>
		uf.u = IORD(NIOS_SYSTEM_SHARED_MEMORY_BASE, offst++);
   2259c:	e0bfff17 	ldw	r2,-4(fp)
   225a0:	10c00044 	addi	r3,r2,1
   225a4:	e0ffff15 	stw	r3,-4(fp)
   225a8:	100490ba 	slli	r2,r2,2
   225ac:	10880004 	addi	r2,r2,8192
   225b0:	10800037 	ldwio	r2,0(r2)
   225b4:	e0bff515 	stw	r2,-44(fp)
		*fp++ = uf.f;
   225b8:	e0bff917 	ldw	r2,-28(fp)
   225bc:	10c00104 	addi	r3,r2,4
   225c0:	e0fff915 	stw	r3,-28(fp)
   225c4:	e0fff517 	ldw	r3,-44(fp)
   225c8:	10c00015 	stw	r3,0(r2)
	for (int i = 0; i < 6; i++) {
   225cc:	e0bff817 	ldw	r2,-32(fp)
   225d0:	10800044 	addi	r2,r2,1
   225d4:	e0bff815 	stw	r2,-32(fp)
   225d8:	e0bff817 	ldw	r2,-32(fp)
   225dc:	10800190 	cmplti	r2,r2,6
   225e0:	103fee1e 	bne	r2,zero,2259c <set_thresh+0x1f4>
	}

	offst = GYROS_X_SENSOR_L_THRESH >> 2;
   225e4:	00802404 	movi	r2,144
   225e8:	e0bfff15 	stw	r2,-4(fp)
	fp = &thresh.g[0][0];
   225ec:	00800134 	movhi	r2,4
   225f0:	10b25f04 	addi	r2,r2,-13956
   225f4:	e0bff915 	stw	r2,-28(fp)
	for (int i = 0; i < 6; i++) {
   225f8:	e03ff715 	stw	zero,-36(fp)
   225fc:	00000f06 	br	2263c <set_thresh+0x294>
		uf.u = IORD(NIOS_SYSTEM_SHARED_MEMORY_BASE, offst++);
   22600:	e0bfff17 	ldw	r2,-4(fp)
   22604:	10c00044 	addi	r3,r2,1
   22608:	e0ffff15 	stw	r3,-4(fp)
   2260c:	100490ba 	slli	r2,r2,2
   22610:	10880004 	addi	r2,r2,8192
   22614:	10800037 	ldwio	r2,0(r2)
   22618:	e0bff515 	stw	r2,-44(fp)
		*fp++ = uf.f;
   2261c:	e0bff917 	ldw	r2,-28(fp)
   22620:	10c00104 	addi	r3,r2,4
   22624:	e0fff915 	stw	r3,-28(fp)
   22628:	e0fff517 	ldw	r3,-44(fp)
   2262c:	10c00015 	stw	r3,0(r2)
	for (int i = 0; i < 6; i++) {
   22630:	e0bff717 	ldw	r2,-36(fp)
   22634:	10800044 	addi	r2,r2,1
   22638:	e0bff715 	stw	r2,-36(fp)
   2263c:	e0bff717 	ldw	r2,-36(fp)
   22640:	10800190 	cmplti	r2,r2,6
   22644:	103fee1e 	bne	r2,zero,22600 <set_thresh+0x258>
	}

	offst = MAGNE_X_SENSOR_L_THRESH >> 2;
   22648:	00802584 	movi	r2,150
   2264c:	e0bfff15 	stw	r2,-4(fp)
	fp = &thresh.m[0][0];
   22650:	00800134 	movhi	r2,4
   22654:	10b26504 	addi	r2,r2,-13932
   22658:	e0bff915 	stw	r2,-28(fp)
	for (int i = 0; i < 6; i++) {
   2265c:	e03ff615 	stw	zero,-40(fp)
   22660:	00000f06 	br	226a0 <set_thresh+0x2f8>
		uf.u = IORD(NIOS_SYSTEM_SHARED_MEMORY_BASE, offst++);
   22664:	e0bfff17 	ldw	r2,-4(fp)
   22668:	10c00044 	addi	r3,r2,1
   2266c:	e0ffff15 	stw	r3,-4(fp)
   22670:	100490ba 	slli	r2,r2,2
   22674:	10880004 	addi	r2,r2,8192
   22678:	10800037 	ldwio	r2,0(r2)
   2267c:	e0bff515 	stw	r2,-44(fp)
		*fp++ = uf.f;
   22680:	e0bff917 	ldw	r2,-28(fp)
   22684:	10c00104 	addi	r3,r2,4
   22688:	e0fff915 	stw	r3,-28(fp)
   2268c:	e0fff517 	ldw	r3,-44(fp)
   22690:	10c00015 	stw	r3,0(r2)
	for (int i = 0; i < 6; i++) {
   22694:	e0bff617 	ldw	r2,-40(fp)
   22698:	10800044 	addi	r2,r2,1
   2269c:	e0bff615 	stw	r2,-40(fp)
   226a0:	e0bff617 	ldw	r2,-40(fp)
   226a4:	10800190 	cmplti	r2,r2,6
   226a8:	103fee1e 	bne	r2,zero,22664 <set_thresh+0x2bc>
	}

}
   226ac:	0001883a 	nop
   226b0:	0001883a 	nop
   226b4:	e037883a 	mov	sp,fp
   226b8:	df000017 	ldw	fp,0(sp)
   226bc:	dec00104 	addi	sp,sp,4
   226c0:	f800283a 	ret

000226c4 <check_light_threshold>:

//#define is_OutOfRange(a,THptr) ( ((a) < (*(THptr))) || ((a)>(*((THptr)+1))) )
#define is_OutOfRange(a,THptr) ( ((a) < ((THptr)[0])) || ((a)>(((THptr)[1]))) )
#define SET_OUT_OF_RANGE_LED(v)  IOWR(NIOS_SYSTEM_LED_PIO_BASE, 0, (v) )

bool check_light_threshold(int light0, int light1, float lux) {
   226c4:	defffa04 	addi	sp,sp,-24
   226c8:	dfc00515 	stw	ra,20(sp)
   226cc:	df000415 	stw	fp,16(sp)
   226d0:	df000404 	addi	fp,sp,16
   226d4:	e13ffe15 	stw	r4,-8(fp)
   226d8:	e17ffd15 	stw	r5,-12(fp)
   226dc:	e1bffc15 	stw	r6,-16(fp)
	bool rv = false;
   226e0:	e03fffc5 	stb	zero,-1(fp)
	if (
	//is_OutOfRange(light0, &thresh.light[0][0] ) ||
	//is_OutOfRange(light1, &thresh.light[1][0] ) ||
	is_OutOfRange(lux, &thresh.lux[0])) {
   226e4:	00800134 	movhi	r2,4
   226e8:	10b25317 	ldw	r2,-14004(r2)
	if (
   226ec:	100b883a 	mov	r5,r2
   226f0:	e13ffc17 	ldw	r4,-16(fp)
   226f4:	00274fc0 	call	274fc <__lesf2>
   226f8:	10000716 	blt	r2,zero,22718 <check_light_threshold+0x54>
	is_OutOfRange(lux, &thresh.lux[0])) {
   226fc:	00800134 	movhi	r2,4
   22700:	10b25404 	addi	r2,r2,-14000
   22704:	10c00017 	ldw	r3,0(r2)
   22708:	180b883a 	mov	r5,r3
   2270c:	e13ffc17 	ldw	r4,-16(fp)
   22710:	00274440 	call	27444 <__gesf2>
   22714:	0080020e 	bge	zero,r2,22720 <check_light_threshold+0x5c>
		rv = true;
   22718:	00800044 	movi	r2,1
   2271c:	e0bfffc5 	stb	r2,-1(fp)
	}
	return rv;
   22720:	e0bfffc3 	ldbu	r2,-1(fp)
}
   22724:	e037883a 	mov	sp,fp
   22728:	dfc00117 	ldw	ra,4(sp)
   2272c:	df000017 	ldw	fp,0(sp)
   22730:	dec00204 	addi	sp,sp,8
   22734:	f800283a 	ret

00022738 <check_temp_hm_threshold>:

bool check_temp_hm_threshold(float temp, float hm) {
   22738:	defffb04 	addi	sp,sp,-20
   2273c:	dfc00415 	stw	ra,16(sp)
   22740:	df000315 	stw	fp,12(sp)
   22744:	df000304 	addi	fp,sp,12
   22748:	e13ffe15 	stw	r4,-8(fp)
   2274c:	e17ffd15 	stw	r5,-12(fp)
	bool rv = false;
   22750:	e03fffc5 	stb	zero,-1(fp)
	if ( is_OutOfRange(temp, &thresh.fTemperature[0]) ||
   22754:	00800134 	movhi	r2,4
   22758:	10b25517 	ldw	r2,-13996(r2)
   2275c:	100b883a 	mov	r5,r2
   22760:	e13ffe17 	ldw	r4,-8(fp)
   22764:	00274fc0 	call	274fc <__lesf2>
   22768:	10001416 	blt	r2,zero,227bc <check_temp_hm_threshold+0x84>
   2276c:	00800134 	movhi	r2,4
   22770:	10b25604 	addi	r2,r2,-13992
   22774:	10c00017 	ldw	r3,0(r2)
   22778:	180b883a 	mov	r5,r3
   2277c:	e13ffe17 	ldw	r4,-8(fp)
   22780:	00274440 	call	27444 <__gesf2>
   22784:	00800d16 	blt	zero,r2,227bc <check_temp_hm_threshold+0x84>
	is_OutOfRange(hm, &thresh.fHumidity[0] )) {
   22788:	00800134 	movhi	r2,4
   2278c:	10b25717 	ldw	r2,-13988(r2)
	if ( is_OutOfRange(temp, &thresh.fTemperature[0]) ||
   22790:	100b883a 	mov	r5,r2
   22794:	e13ffd17 	ldw	r4,-12(fp)
   22798:	00274fc0 	call	274fc <__lesf2>
   2279c:	10000716 	blt	r2,zero,227bc <check_temp_hm_threshold+0x84>
	is_OutOfRange(hm, &thresh.fHumidity[0] )) {
   227a0:	00800134 	movhi	r2,4
   227a4:	10b25804 	addi	r2,r2,-13984
   227a8:	10c00017 	ldw	r3,0(r2)
   227ac:	180b883a 	mov	r5,r3
   227b0:	e13ffd17 	ldw	r4,-12(fp)
   227b4:	00274440 	call	27444 <__gesf2>
   227b8:	0080020e 	bge	zero,r2,227c4 <check_temp_hm_threshold+0x8c>
		rv = true;
   227bc:	00800044 	movi	r2,1
   227c0:	e0bfffc5 	stb	r2,-1(fp)
	}
	return rv;
   227c4:	e0bfffc3 	ldbu	r2,-1(fp)
}
   227c8:	e037883a 	mov	sp,fp
   227cc:	dfc00117 	ldw	ra,4(sp)
   227d0:	df000017 	ldw	fp,0(sp)
   227d4:	dec00204 	addi	sp,sp,8
   227d8:	f800283a 	ret

000227dc <check_temp_ax9_threshold>:

bool check_temp_ax9_threshold(float a[3], float g[3], float m[3]) {
   227dc:	defff604 	addi	sp,sp,-40
   227e0:	dfc00915 	stw	ra,36(sp)
   227e4:	df000815 	stw	fp,32(sp)
   227e8:	df000804 	addi	fp,sp,32
   227ec:	e13ffa15 	stw	r4,-24(fp)
   227f0:	e17ff915 	stw	r5,-28(fp)
   227f4:	e1bff815 	stw	r6,-32(fp)
	bool rv = false;
   227f8:	e03fffc5 	stb	zero,-1(fp)
	int err = 0;
   227fc:	e03ffe15 	stw	zero,-8(fp)
	for (int i = 0; i < 3; i++) {
   22800:	e03ffd15 	stw	zero,-12(fp)
   22804:	00002406 	br	22898 <check_temp_ax9_threshold+0xbc>
		if (is_OutOfRange(a[i], &thresh.a[i][0]))
   22808:	e0bffd17 	ldw	r2,-12(fp)
   2280c:	100490ba 	slli	r2,r2,2
   22810:	e0fffa17 	ldw	r3,-24(fp)
   22814:	1885883a 	add	r2,r3,r2
   22818:	11000017 	ldw	r4,0(r2)
   2281c:	e0bffd17 	ldw	r2,-12(fp)
   22820:	10800144 	addi	r2,r2,5
   22824:	100690fa 	slli	r3,r2,3
   22828:	00800134 	movhi	r2,4
   2282c:	1885883a 	add	r2,r3,r2
   22830:	10b24f17 	ldw	r2,-14020(r2)
   22834:	100b883a 	mov	r5,r2
   22838:	00274fc0 	call	274fc <__lesf2>
   2283c:	10001016 	blt	r2,zero,22880 <check_temp_ax9_threshold+0xa4>
   22840:	e0bffd17 	ldw	r2,-12(fp)
   22844:	100490ba 	slli	r2,r2,2
   22848:	e0fffa17 	ldw	r3,-24(fp)
   2284c:	1885883a 	add	r2,r3,r2
   22850:	11000017 	ldw	r4,0(r2)
   22854:	e0bffd17 	ldw	r2,-12(fp)
   22858:	10800144 	addi	r2,r2,5
   2285c:	100690fa 	slli	r3,r2,3
   22860:	00800134 	movhi	r2,4
   22864:	10b24f04 	addi	r2,r2,-14020
   22868:	1885883a 	add	r2,r3,r2
   2286c:	10800104 	addi	r2,r2,4
   22870:	10c00017 	ldw	r3,0(r2)
   22874:	180b883a 	mov	r5,r3
   22878:	00274440 	call	27444 <__gesf2>
   2287c:	0080030e 	bge	zero,r2,2288c <check_temp_ax9_threshold+0xb0>
			err++;
   22880:	e0bffe17 	ldw	r2,-8(fp)
   22884:	10800044 	addi	r2,r2,1
   22888:	e0bffe15 	stw	r2,-8(fp)
	for (int i = 0; i < 3; i++) {
   2288c:	e0bffd17 	ldw	r2,-12(fp)
   22890:	10800044 	addi	r2,r2,1
   22894:	e0bffd15 	stw	r2,-12(fp)
   22898:	e0bffd17 	ldw	r2,-12(fp)
   2289c:	108000d0 	cmplti	r2,r2,3
   228a0:	103fd91e 	bne	r2,zero,22808 <check_temp_ax9_threshold+0x2c>
	}
	for (int i = 0; i < 3; i++) {
   228a4:	e03ffc15 	stw	zero,-16(fp)
   228a8:	00002406 	br	2293c <check_temp_ax9_threshold+0x160>
		if (is_OutOfRange(g[i], &thresh.g[i][0]))
   228ac:	e0bffc17 	ldw	r2,-16(fp)
   228b0:	100490ba 	slli	r2,r2,2
   228b4:	e0fff917 	ldw	r3,-28(fp)
   228b8:	1885883a 	add	r2,r3,r2
   228bc:	11000017 	ldw	r4,0(r2)
   228c0:	e0bffc17 	ldw	r2,-16(fp)
   228c4:	10800204 	addi	r2,r2,8
   228c8:	100690fa 	slli	r3,r2,3
   228cc:	00800134 	movhi	r2,4
   228d0:	1885883a 	add	r2,r3,r2
   228d4:	10b24f17 	ldw	r2,-14020(r2)
   228d8:	100b883a 	mov	r5,r2
   228dc:	00274fc0 	call	274fc <__lesf2>
   228e0:	10001016 	blt	r2,zero,22924 <check_temp_ax9_threshold+0x148>
   228e4:	e0bffc17 	ldw	r2,-16(fp)
   228e8:	100490ba 	slli	r2,r2,2
   228ec:	e0fff917 	ldw	r3,-28(fp)
   228f0:	1885883a 	add	r2,r3,r2
   228f4:	11000017 	ldw	r4,0(r2)
   228f8:	e0bffc17 	ldw	r2,-16(fp)
   228fc:	10800204 	addi	r2,r2,8
   22900:	100690fa 	slli	r3,r2,3
   22904:	00800134 	movhi	r2,4
   22908:	10b24f04 	addi	r2,r2,-14020
   2290c:	1885883a 	add	r2,r3,r2
   22910:	10800104 	addi	r2,r2,4
   22914:	10c00017 	ldw	r3,0(r2)
   22918:	180b883a 	mov	r5,r3
   2291c:	00274440 	call	27444 <__gesf2>
   22920:	0080030e 	bge	zero,r2,22930 <check_temp_ax9_threshold+0x154>
			err++;
   22924:	e0bffe17 	ldw	r2,-8(fp)
   22928:	10800044 	addi	r2,r2,1
   2292c:	e0bffe15 	stw	r2,-8(fp)
	for (int i = 0; i < 3; i++) {
   22930:	e0bffc17 	ldw	r2,-16(fp)
   22934:	10800044 	addi	r2,r2,1
   22938:	e0bffc15 	stw	r2,-16(fp)
   2293c:	e0bffc17 	ldw	r2,-16(fp)
   22940:	108000d0 	cmplti	r2,r2,3
   22944:	103fd91e 	bne	r2,zero,228ac <check_temp_ax9_threshold+0xd0>
	}
	for (int i = 0; i < 3; i++) {
   22948:	e03ffb15 	stw	zero,-20(fp)
   2294c:	00002406 	br	229e0 <check_temp_ax9_threshold+0x204>
		if (is_OutOfRange(m[i], &thresh.m[i][0]))
   22950:	e0bffb17 	ldw	r2,-20(fp)
   22954:	100490ba 	slli	r2,r2,2
   22958:	e0fff817 	ldw	r3,-32(fp)
   2295c:	1885883a 	add	r2,r3,r2
   22960:	11000017 	ldw	r4,0(r2)
   22964:	e0bffb17 	ldw	r2,-20(fp)
   22968:	108002c4 	addi	r2,r2,11
   2296c:	100690fa 	slli	r3,r2,3
   22970:	00800134 	movhi	r2,4
   22974:	1885883a 	add	r2,r3,r2
   22978:	10b24f17 	ldw	r2,-14020(r2)
   2297c:	100b883a 	mov	r5,r2
   22980:	00274fc0 	call	274fc <__lesf2>
   22984:	10001016 	blt	r2,zero,229c8 <check_temp_ax9_threshold+0x1ec>
   22988:	e0bffb17 	ldw	r2,-20(fp)
   2298c:	100490ba 	slli	r2,r2,2
   22990:	e0fff817 	ldw	r3,-32(fp)
   22994:	1885883a 	add	r2,r3,r2
   22998:	11000017 	ldw	r4,0(r2)
   2299c:	e0bffb17 	ldw	r2,-20(fp)
   229a0:	108002c4 	addi	r2,r2,11
   229a4:	100690fa 	slli	r3,r2,3
   229a8:	00800134 	movhi	r2,4
   229ac:	10b24f04 	addi	r2,r2,-14020
   229b0:	1885883a 	add	r2,r3,r2
   229b4:	10800104 	addi	r2,r2,4
   229b8:	10c00017 	ldw	r3,0(r2)
   229bc:	180b883a 	mov	r5,r3
   229c0:	00274440 	call	27444 <__gesf2>
   229c4:	0080030e 	bge	zero,r2,229d4 <check_temp_ax9_threshold+0x1f8>
			err++;
   229c8:	e0bffe17 	ldw	r2,-8(fp)
   229cc:	10800044 	addi	r2,r2,1
   229d0:	e0bffe15 	stw	r2,-8(fp)
	for (int i = 0; i < 3; i++) {
   229d4:	e0bffb17 	ldw	r2,-20(fp)
   229d8:	10800044 	addi	r2,r2,1
   229dc:	e0bffb15 	stw	r2,-20(fp)
   229e0:	e0bffb17 	ldw	r2,-20(fp)
   229e4:	108000d0 	cmplti	r2,r2,3
   229e8:	103fd91e 	bne	r2,zero,22950 <check_temp_ax9_threshold+0x174>
	}

	if (err) {
   229ec:	e0bffe17 	ldw	r2,-8(fp)
   229f0:	10000226 	beq	r2,zero,229fc <check_temp_ax9_threshold+0x220>
		rv = true;
   229f4:	00800044 	movi	r2,1
   229f8:	e0bfffc5 	stb	r2,-1(fp)
	}
	return rv;
   229fc:	e0bfffc3 	ldbu	r2,-1(fp)
}
   22a00:	e037883a 	mov	sp,fp
   22a04:	dfc00117 	ldw	ra,4(sp)
   22a08:	df000017 	ldw	fp,0(sp)
   22a0c:	dec00204 	addi	sp,sp,8
   22a10:	f800283a 	ret

00022a14 <Sensor_Report>:

#define DEBUG

static bool g_clear_OOR_flag = true;

void Sensor_Report(bool print_flag) {
   22a14:	deffda04 	addi	sp,sp,-152
   22a18:	dfc02515 	stw	ra,148(sp)
   22a1c:	df002415 	stw	fp,144(sp)
   22a20:	dcc02315 	stw	r19,140(sp)
   22a24:	dc802215 	stw	r18,136(sp)
   22a28:	dc402115 	stw	r17,132(sp)
   22a2c:	dc002015 	stw	r16,128(sp)
   22a30:	df002404 	addi	fp,sp,144
   22a34:	2005883a 	mov	r2,r4
   22a38:	e0bfe105 	stb	r2,-124(fp)
	bool bPass, bPass2;

	////////////////////////////////
	// report light sensor
	alt_u16 light0 = 0, light1 = 0;
   22a3c:	e03fee8d 	sth	zero,-70(fp)
   22a40:	e03fee0d 	sth	zero,-72(fp)
	float lux = 0;
   22a44:	e03fed15 	stw	zero,-76(fp)
	bPass = Get_light(&light0, &light1);
   22a48:	e0ffee04 	addi	r3,fp,-72
   22a4c:	e0bfee84 	addi	r2,fp,-70
   22a50:	180b883a 	mov	r5,r3
   22a54:	1009883a 	mov	r4,r2
   22a58:	0021ae80 	call	21ae8 <Get_light>
   22a5c:	e0bff1c5 	stb	r2,-57(fp)
	if (bPass) {
   22a60:	e0bff1c3 	ldbu	r2,-57(fp)
   22a64:	10000b26 	beq	r2,zero,22a94 <Sensor_Report+0x80>
		bPass2 = convert_light_lux(light0, light1, &lux);
   22a68:	e0bfee8b 	ldhu	r2,-70(fp)
   22a6c:	10bfffcc 	andi	r2,r2,65535
   22a70:	e0ffee0b 	ldhu	r3,-72(fp)
   22a74:	18ffffcc 	andi	r3,r3,65535
   22a78:	e13fed04 	addi	r4,fp,-76
   22a7c:	200d883a 	mov	r6,r4
   22a80:	180b883a 	mov	r5,r3
   22a84:	1009883a 	mov	r4,r2
   22a88:	0021ed80 	call	21ed8 <convert_light_lux>
   22a8c:	e0bffbc5 	stb	r2,-17(fp)
   22a90:	00000106 	br	22a98 <Sensor_Report+0x84>
	} else
		bPass2 = FALSE;
   22a94:	e03ffbc5 	stb	zero,-17(fp)

	if (print_flag) {
   22a98:	e0bfe103 	ldbu	r2,-124(fp)
   22a9c:	10002226 	beq	r2,zero,22b28 <Sensor_Report+0x114>
		if (bPass2) {
   22aa0:	e0bffbc3 	ldbu	r2,-17(fp)
   22aa4:	10001126 	beq	r2,zero,22aec <Sensor_Report+0xd8>
			printf("light0 = %d, light1 = %d, lux = %.3f\r\n", light0, light1,
   22aa8:	e0bfee8b 	ldhu	r2,-70(fp)
   22aac:	143fffcc 	andi	r16,r2,65535
   22ab0:	e0bfee0b 	ldhu	r2,-72(fp)
   22ab4:	147fffcc 	andi	r17,r2,65535
   22ab8:	e0bfed17 	ldw	r2,-76(fp)
   22abc:	1009883a 	mov	r4,r2
   22ac0:	002a6280 	call	2a628 <__extendsfdf2>
   22ac4:	1009883a 	mov	r4,r2
   22ac8:	180b883a 	mov	r5,r3
   22acc:	d9400015 	stw	r5,0(sp)
   22ad0:	200f883a 	mov	r7,r4
   22ad4:	880d883a 	mov	r6,r17
   22ad8:	800b883a 	mov	r5,r16
   22adc:	01000134 	movhi	r4,4
   22ae0:	21211f04 	addi	r4,r4,-31620
   22ae4:	002a9240 	call	2a924 <printf>
   22ae8:	00000f06 	br	22b28 <Sensor_Report+0x114>
					lux);
		} else if (bPass) {
   22aec:	e0bff1c3 	ldbu	r2,-57(fp)
   22af0:	10000a26 	beq	r2,zero,22b1c <Sensor_Report+0x108>
			printf("light0 = %d, light1 = %d,but getting lux value failed\r\n",
   22af4:	e0bfee8b 	ldhu	r2,-70(fp)
   22af8:	10bfffcc 	andi	r2,r2,65535
   22afc:	e0ffee0b 	ldhu	r3,-72(fp)
   22b00:	18ffffcc 	andi	r3,r3,65535
   22b04:	180d883a 	mov	r6,r3
   22b08:	100b883a 	mov	r5,r2
   22b0c:	01000134 	movhi	r4,4
   22b10:	21212904 	addi	r4,r4,-31580
   22b14:	002a9240 	call	2a924 <printf>
   22b18:	00000306 	br	22b28 <Sensor_Report+0x114>
					light0, light1);
		} else {
			printf("get light0 and light1 values failed!\r\n");
   22b1c:	01000134 	movhi	r4,4
   22b20:	21213704 	addi	r4,r4,-31524
   22b24:	002aa480 	call	2aa48 <puts>
	}

	////////////////////////////////
	// report HDC1000 temperature & humidity sensor
	float fTemperature, fHumidity;
	bPass = RH_Temp_Sensor_Read(&fTemperature, &fHumidity);
   22b28:	e0ffeb04 	addi	r3,fp,-84
   22b2c:	e0bfec04 	addi	r2,fp,-80
   22b30:	180b883a 	mov	r5,r3
   22b34:	1009883a 	mov	r4,r2
   22b38:	00251940 	call	25194 <RH_Temp_Sensor_Read>
   22b3c:	e0bff1c5 	stb	r2,-57(fp)
	if (print_flag) {
   22b40:	e0bfe103 	ldbu	r2,-124(fp)
   22b44:	10001a26 	beq	r2,zero,22bb0 <Sensor_Report+0x19c>
		if (bPass) {
   22b48:	e0bff1c3 	ldbu	r2,-57(fp)
   22b4c:	10001526 	beq	r2,zero,22ba4 <Sensor_Report+0x190>
			printf("Temperature: %.3f*C\r\n", fTemperature);
   22b50:	e0bfec17 	ldw	r2,-80(fp)
   22b54:	1009883a 	mov	r4,r2
   22b58:	002a6280 	call	2a628 <__extendsfdf2>
   22b5c:	100d883a 	mov	r6,r2
   22b60:	180f883a 	mov	r7,r3
   22b64:	300b883a 	mov	r5,r6
   22b68:	380d883a 	mov	r6,r7
   22b6c:	01000134 	movhi	r4,4
   22b70:	21214104 	addi	r4,r4,-31484
   22b74:	002a9240 	call	2a924 <printf>
			printf("Humidity: %.3f%%\r\n", fHumidity);
   22b78:	e0bfeb17 	ldw	r2,-84(fp)
   22b7c:	1009883a 	mov	r4,r2
   22b80:	002a6280 	call	2a628 <__extendsfdf2>
   22b84:	100d883a 	mov	r6,r2
   22b88:	180f883a 	mov	r7,r3
   22b8c:	300b883a 	mov	r5,r6
   22b90:	380d883a 	mov	r6,r7
   22b94:	01000134 	movhi	r4,4
   22b98:	21214704 	addi	r4,r4,-31460
   22b9c:	002a9240 	call	2a924 <printf>
   22ba0:	00000306 	br	22bb0 <Sensor_Report+0x19c>
		} else {
			printf("Failed to ready Temperature/Humidity sensor!\r\n");
   22ba4:	01000134 	movhi	r4,4
   22ba8:	21214c04 	addi	r4,r4,-31440
   22bac:	002aa480 	call	2aa48 <puts>
	////////////////////////////////
	// report mpu9250 9-axis sensor
	float a[3];
	float g[3];
	float m[3];
	getMotion9(&a[0], &a[1], &a[2], &g[0], &g[1], &g[2], &m[0], &m[1], &m[2]);
   22bb0:	e1bfe504 	addi	r6,fp,-108
   22bb4:	e0bfe804 	addi	r2,fp,-96
   22bb8:	11400204 	addi	r5,r2,8
   22bbc:	e0bfe804 	addi	r2,fp,-96
   22bc0:	11000104 	addi	r4,r2,4
   22bc4:	e0ffe804 	addi	r3,fp,-96
   22bc8:	e0bfe204 	addi	r2,fp,-120
   22bcc:	10800204 	addi	r2,r2,8
   22bd0:	d8800415 	stw	r2,16(sp)
   22bd4:	e0bfe204 	addi	r2,fp,-120
   22bd8:	10800104 	addi	r2,r2,4
   22bdc:	d8800315 	stw	r2,12(sp)
   22be0:	e0bfe204 	addi	r2,fp,-120
   22be4:	d8800215 	stw	r2,8(sp)
   22be8:	e0bfe504 	addi	r2,fp,-108
   22bec:	10800204 	addi	r2,r2,8
   22bf0:	d8800115 	stw	r2,4(sp)
   22bf4:	e0bfe504 	addi	r2,fp,-108
   22bf8:	10800104 	addi	r2,r2,4
   22bfc:	d8800015 	stw	r2,0(sp)
   22c00:	300f883a 	mov	r7,r6
   22c04:	280d883a 	mov	r6,r5
   22c08:	200b883a 	mov	r5,r4
   22c0c:	1809883a 	mov	r4,r3
   22c10:	0024ea80 	call	24ea8 <getMotion9>

	////////////////////////////////
	// Check out of range, and set LED
	static int out_of_range = 0;
	if (g_clear_OOR_flag)
   22c14:	d0a00503 	ldbu	r2,-32748(gp)
   22c18:	10803fcc 	andi	r2,r2,255
   22c1c:	10000126 	beq	r2,zero,22c24 <Sensor_Report+0x210>
		out_of_range = 0;
   22c20:	d0272515 	stw	zero,-25452(gp)
	if (check_light_threshold(light0, light1, lux))
   22c24:	e0bfee8b 	ldhu	r2,-70(fp)
   22c28:	10bfffcc 	andi	r2,r2,65535
   22c2c:	e0ffee0b 	ldhu	r3,-72(fp)
   22c30:	18ffffcc 	andi	r3,r3,65535
   22c34:	e13fed17 	ldw	r4,-76(fp)
   22c38:	200d883a 	mov	r6,r4
   22c3c:	180b883a 	mov	r5,r3
   22c40:	1009883a 	mov	r4,r2
   22c44:	00226c40 	call	226c4 <check_light_threshold>
   22c48:	10803fcc 	andi	r2,r2,255
   22c4c:	10000326 	beq	r2,zero,22c5c <Sensor_Report+0x248>
		out_of_range |= 1 << 0;
   22c50:	d0a72517 	ldw	r2,-25452(gp)
   22c54:	10800054 	ori	r2,r2,1
   22c58:	d0a72515 	stw	r2,-25452(gp)
	if (check_temp_hm_threshold(fTemperature, fHumidity))
   22c5c:	e0bfec17 	ldw	r2,-80(fp)
   22c60:	e0ffeb17 	ldw	r3,-84(fp)
   22c64:	180b883a 	mov	r5,r3
   22c68:	1009883a 	mov	r4,r2
   22c6c:	00227380 	call	22738 <check_temp_hm_threshold>
   22c70:	10803fcc 	andi	r2,r2,255
   22c74:	10000326 	beq	r2,zero,22c84 <Sensor_Report+0x270>
		out_of_range |= 1 << 1;
   22c78:	d0a72517 	ldw	r2,-25452(gp)
   22c7c:	10800094 	ori	r2,r2,2
   22c80:	d0a72515 	stw	r2,-25452(gp)
	if (check_temp_ax9_threshold(a, g, m))
   22c84:	e13fe204 	addi	r4,fp,-120
   22c88:	e0ffe504 	addi	r3,fp,-108
   22c8c:	e0bfe804 	addi	r2,fp,-96
   22c90:	200d883a 	mov	r6,r4
   22c94:	180b883a 	mov	r5,r3
   22c98:	1009883a 	mov	r4,r2
   22c9c:	00227dc0 	call	227dc <check_temp_ax9_threshold>
   22ca0:	10803fcc 	andi	r2,r2,255
   22ca4:	10000326 	beq	r2,zero,22cb4 <Sensor_Report+0x2a0>
		out_of_range |= 1 << 2;
   22ca8:	d0a72517 	ldw	r2,-25452(gp)
   22cac:	10800114 	ori	r2,r2,4
   22cb0:	d0a72515 	stw	r2,-25452(gp)
	SET_OUT_OF_RANGE_LED(out_of_range);
   22cb4:	d0a72517 	ldw	r2,-25452(gp)
   22cb8:	00840035 	stwio	r2,4096(zero)

	////////////////////////////////
	// Print out sensor values
	if (print_flag) {
   22cbc:	e0bfe103 	ldbu	r2,-124(fp)
   22cc0:	10004b26 	beq	r2,zero,22df0 <Sensor_Report+0x3dc>
		printf("9-axis info:\r\n");
   22cc4:	01000134 	movhi	r4,4
   22cc8:	21215804 	addi	r4,r4,-31392
   22ccc:	002aa480 	call	2aa48 <puts>
		printf("ax = %.3f, ay = %.3f, az = %.3f\r\n", a[0], a[1], a[2]);
   22cd0:	e0bfe817 	ldw	r2,-96(fp)
   22cd4:	1009883a 	mov	r4,r2
   22cd8:	002a6280 	call	2a628 <__extendsfdf2>
   22cdc:	1025883a 	mov	r18,r2
   22ce0:	1827883a 	mov	r19,r3
   22ce4:	e0bfe917 	ldw	r2,-92(fp)
   22ce8:	1009883a 	mov	r4,r2
   22cec:	002a6280 	call	2a628 <__extendsfdf2>
   22cf0:	1021883a 	mov	r16,r2
   22cf4:	1823883a 	mov	r17,r3
   22cf8:	e0bfea17 	ldw	r2,-88(fp)
   22cfc:	1009883a 	mov	r4,r2
   22d00:	002a6280 	call	2a628 <__extendsfdf2>
   22d04:	1009883a 	mov	r4,r2
   22d08:	180b883a 	mov	r5,r3
   22d0c:	d9000115 	stw	r4,4(sp)
   22d10:	d9400215 	stw	r5,8(sp)
   22d14:	dc400015 	stw	r17,0(sp)
   22d18:	800f883a 	mov	r7,r16
   22d1c:	900b883a 	mov	r5,r18
   22d20:	980d883a 	mov	r6,r19
   22d24:	01000134 	movhi	r4,4
   22d28:	21215c04 	addi	r4,r4,-31376
   22d2c:	002a9240 	call	2a924 <printf>
		printf("gx = %.3f, gy = %.3f, gz = %.3f\r\n", g[0], g[1], g[2]);
   22d30:	e0bfe517 	ldw	r2,-108(fp)
   22d34:	1009883a 	mov	r4,r2
   22d38:	002a6280 	call	2a628 <__extendsfdf2>
   22d3c:	1025883a 	mov	r18,r2
   22d40:	1827883a 	mov	r19,r3
   22d44:	e0bfe617 	ldw	r2,-104(fp)
   22d48:	1009883a 	mov	r4,r2
   22d4c:	002a6280 	call	2a628 <__extendsfdf2>
   22d50:	1021883a 	mov	r16,r2
   22d54:	1823883a 	mov	r17,r3
   22d58:	e0bfe717 	ldw	r2,-100(fp)
   22d5c:	1009883a 	mov	r4,r2
   22d60:	002a6280 	call	2a628 <__extendsfdf2>
   22d64:	1009883a 	mov	r4,r2
   22d68:	180b883a 	mov	r5,r3
   22d6c:	d9000115 	stw	r4,4(sp)
   22d70:	d9400215 	stw	r5,8(sp)
   22d74:	dc400015 	stw	r17,0(sp)
   22d78:	800f883a 	mov	r7,r16
   22d7c:	900b883a 	mov	r5,r18
   22d80:	980d883a 	mov	r6,r19
   22d84:	01000134 	movhi	r4,4
   22d88:	21216504 	addi	r4,r4,-31340
   22d8c:	002a9240 	call	2a924 <printf>
		printf("mx = %.3f, my = %.3f, mz = %.3f\r\n", m[0], m[1], m[2]);
   22d90:	e0bfe217 	ldw	r2,-120(fp)
   22d94:	1009883a 	mov	r4,r2
   22d98:	002a6280 	call	2a628 <__extendsfdf2>
   22d9c:	1025883a 	mov	r18,r2
   22da0:	1827883a 	mov	r19,r3
   22da4:	e0bfe317 	ldw	r2,-116(fp)
   22da8:	1009883a 	mov	r4,r2
   22dac:	002a6280 	call	2a628 <__extendsfdf2>
   22db0:	1021883a 	mov	r16,r2
   22db4:	1823883a 	mov	r17,r3
   22db8:	e0bfe417 	ldw	r2,-112(fp)
   22dbc:	1009883a 	mov	r4,r2
   22dc0:	002a6280 	call	2a628 <__extendsfdf2>
   22dc4:	1009883a 	mov	r4,r2
   22dc8:	180b883a 	mov	r5,r3
   22dcc:	d9000115 	stw	r4,4(sp)
   22dd0:	d9400215 	stw	r5,8(sp)
   22dd4:	dc400015 	stw	r17,0(sp)
   22dd8:	800f883a 	mov	r7,r16
   22ddc:	900b883a 	mov	r5,r18
   22de0:	980d883a 	mov	r6,r19
   22de4:	01000134 	movhi	r4,4
   22de8:	21216e04 	addi	r4,r4,-31304
   22dec:	002a9240 	call	2a924 <printf>
	}
	if (print_flag) {
   22df0:	e0bfe103 	ldbu	r2,-124(fp)
   22df4:	1000c926 	beq	r2,zero,2311c <Sensor_Report+0x708>
#ifdef DEBUG
		////////////////////////////////
		// Print out threshold values
		int *pi = &thresh.light[0][0];
   22df8:	00800134 	movhi	r2,4
   22dfc:	10b24f04 	addi	r2,r2,-14020
   22e00:	e0bffa15 	stw	r2,-24(fp)
		printf(" TH:light ");
   22e04:	01000134 	movhi	r4,4
   22e08:	21217704 	addi	r4,r4,-31268
   22e0c:	002a9240 	call	2a924 <printf>
		for (int i = 0; i < 4; i++) {
   22e10:	e03ff915 	stw	zero,-28(fp)
   22e14:	00000b06 	br	22e44 <Sensor_Report+0x430>
			printf("%d ", *pi++);
   22e18:	e0bffa17 	ldw	r2,-24(fp)
   22e1c:	10c00104 	addi	r3,r2,4
   22e20:	e0fffa15 	stw	r3,-24(fp)
   22e24:	10800017 	ldw	r2,0(r2)
   22e28:	100b883a 	mov	r5,r2
   22e2c:	01000134 	movhi	r4,4
   22e30:	21217a04 	addi	r4,r4,-31256
   22e34:	002a9240 	call	2a924 <printf>
		for (int i = 0; i < 4; i++) {
   22e38:	e0bff917 	ldw	r2,-28(fp)
   22e3c:	10800044 	addi	r2,r2,1
   22e40:	e0bff915 	stw	r2,-28(fp)
   22e44:	e0bff917 	ldw	r2,-28(fp)
   22e48:	10800110 	cmplti	r2,r2,4
   22e4c:	103ff21e 	bne	r2,zero,22e18 <Sensor_Report+0x404>
		}
		printf("\n");
   22e50:	01000284 	movi	r4,10
   22e54:	002a9640 	call	2a964 <putchar>
		float *pf;
		pf = &thresh.lux[0];
   22e58:	00800134 	movhi	r2,4
   22e5c:	10b25304 	addi	r2,r2,-14004
   22e60:	e0bff815 	stw	r2,-32(fp)
		printf(" TH:Lux ");
   22e64:	01000134 	movhi	r4,4
   22e68:	21217b04 	addi	r4,r4,-31252
   22e6c:	002a9240 	call	2a924 <printf>
		for (int i = 0; i < 2; i++) {
   22e70:	e03ff715 	stw	zero,-36(fp)
   22e74:	00001006 	br	22eb8 <Sensor_Report+0x4a4>
			printf("%.3f ", *pf++);
   22e78:	e0bff817 	ldw	r2,-32(fp)
   22e7c:	10c00104 	addi	r3,r2,4
   22e80:	e0fff815 	stw	r3,-32(fp)
   22e84:	10c00017 	ldw	r3,0(r2)
   22e88:	1809883a 	mov	r4,r3
   22e8c:	002a6280 	call	2a628 <__extendsfdf2>
   22e90:	100d883a 	mov	r6,r2
   22e94:	180f883a 	mov	r7,r3
   22e98:	300b883a 	mov	r5,r6
   22e9c:	380d883a 	mov	r6,r7
   22ea0:	01000134 	movhi	r4,4
   22ea4:	21217e04 	addi	r4,r4,-31240
   22ea8:	002a9240 	call	2a924 <printf>
		for (int i = 0; i < 2; i++) {
   22eac:	e0bff717 	ldw	r2,-36(fp)
   22eb0:	10800044 	addi	r2,r2,1
   22eb4:	e0bff715 	stw	r2,-36(fp)
   22eb8:	e0bff717 	ldw	r2,-36(fp)
   22ebc:	10800090 	cmplti	r2,r2,2
   22ec0:	103fed1e 	bne	r2,zero,22e78 <Sensor_Report+0x464>
		}
		printf("\n");
   22ec4:	01000284 	movi	r4,10
   22ec8:	002a9640 	call	2a964 <putchar>
		pf = &thresh.fTemperature[0];
   22ecc:	00800134 	movhi	r2,4
   22ed0:	10b25504 	addi	r2,r2,-13996
   22ed4:	e0bff815 	stw	r2,-32(fp)
		printf(" TH:Temp ");
   22ed8:	01000134 	movhi	r4,4
   22edc:	21218004 	addi	r4,r4,-31232
   22ee0:	002a9240 	call	2a924 <printf>
		for (int i = 0; i < 2; i++) {
   22ee4:	e03ff615 	stw	zero,-40(fp)
   22ee8:	00001006 	br	22f2c <Sensor_Report+0x518>
			printf("%.3f ", *pf++);
   22eec:	e0bff817 	ldw	r2,-32(fp)
   22ef0:	10c00104 	addi	r3,r2,4
   22ef4:	e0fff815 	stw	r3,-32(fp)
   22ef8:	10c00017 	ldw	r3,0(r2)
   22efc:	1809883a 	mov	r4,r3
   22f00:	002a6280 	call	2a628 <__extendsfdf2>
   22f04:	100d883a 	mov	r6,r2
   22f08:	180f883a 	mov	r7,r3
   22f0c:	300b883a 	mov	r5,r6
   22f10:	380d883a 	mov	r6,r7
   22f14:	01000134 	movhi	r4,4
   22f18:	21217e04 	addi	r4,r4,-31240
   22f1c:	002a9240 	call	2a924 <printf>
		for (int i = 0; i < 2; i++) {
   22f20:	e0bff617 	ldw	r2,-40(fp)
   22f24:	10800044 	addi	r2,r2,1
   22f28:	e0bff615 	stw	r2,-40(fp)
   22f2c:	e0bff617 	ldw	r2,-40(fp)
   22f30:	10800090 	cmplti	r2,r2,2
   22f34:	103fed1e 	bne	r2,zero,22eec <Sensor_Report+0x4d8>
		}
		printf("\n");
   22f38:	01000284 	movi	r4,10
   22f3c:	002a9640 	call	2a964 <putchar>
		pf = &thresh.fHumidity[0];
   22f40:	00800134 	movhi	r2,4
   22f44:	10b25704 	addi	r2,r2,-13988
   22f48:	e0bff815 	stw	r2,-32(fp)
		printf(" TH:HM ");
   22f4c:	01000134 	movhi	r4,4
   22f50:	21218304 	addi	r4,r4,-31220
   22f54:	002a9240 	call	2a924 <printf>
		for (int i = 0; i < 2; i++) {
   22f58:	e03ff515 	stw	zero,-44(fp)
   22f5c:	00001006 	br	22fa0 <Sensor_Report+0x58c>
			printf("%.3f ", *pf++);
   22f60:	e0bff817 	ldw	r2,-32(fp)
   22f64:	10c00104 	addi	r3,r2,4
   22f68:	e0fff815 	stw	r3,-32(fp)
   22f6c:	10c00017 	ldw	r3,0(r2)
   22f70:	1809883a 	mov	r4,r3
   22f74:	002a6280 	call	2a628 <__extendsfdf2>
   22f78:	100d883a 	mov	r6,r2
   22f7c:	180f883a 	mov	r7,r3
   22f80:	300b883a 	mov	r5,r6
   22f84:	380d883a 	mov	r6,r7
   22f88:	01000134 	movhi	r4,4
   22f8c:	21217e04 	addi	r4,r4,-31240
   22f90:	002a9240 	call	2a924 <printf>
		for (int i = 0; i < 2; i++) {
   22f94:	e0bff517 	ldw	r2,-44(fp)
   22f98:	10800044 	addi	r2,r2,1
   22f9c:	e0bff515 	stw	r2,-44(fp)
   22fa0:	e0bff517 	ldw	r2,-44(fp)
   22fa4:	10800090 	cmplti	r2,r2,2
   22fa8:	103fed1e 	bne	r2,zero,22f60 <Sensor_Report+0x54c>
		}
		printf("\n");
   22fac:	01000284 	movi	r4,10
   22fb0:	002a9640 	call	2a964 <putchar>
		pf = &thresh.a[0][0];
   22fb4:	00800134 	movhi	r2,4
   22fb8:	10b25904 	addi	r2,r2,-13980
   22fbc:	e0bff815 	stw	r2,-32(fp)
		printf(" TH:a* ");
   22fc0:	01000134 	movhi	r4,4
   22fc4:	21218504 	addi	r4,r4,-31212
   22fc8:	002a9240 	call	2a924 <printf>
		for (int i = 0; i < 6; i++) {
   22fcc:	e03ff415 	stw	zero,-48(fp)
   22fd0:	00001006 	br	23014 <Sensor_Report+0x600>
			printf("%.3f ", *pf++);
   22fd4:	e0bff817 	ldw	r2,-32(fp)
   22fd8:	10c00104 	addi	r3,r2,4
   22fdc:	e0fff815 	stw	r3,-32(fp)
   22fe0:	10c00017 	ldw	r3,0(r2)
   22fe4:	1809883a 	mov	r4,r3
   22fe8:	002a6280 	call	2a628 <__extendsfdf2>
   22fec:	100d883a 	mov	r6,r2
   22ff0:	180f883a 	mov	r7,r3
   22ff4:	300b883a 	mov	r5,r6
   22ff8:	380d883a 	mov	r6,r7
   22ffc:	01000134 	movhi	r4,4
   23000:	21217e04 	addi	r4,r4,-31240
   23004:	002a9240 	call	2a924 <printf>
		for (int i = 0; i < 6; i++) {
   23008:	e0bff417 	ldw	r2,-48(fp)
   2300c:	10800044 	addi	r2,r2,1
   23010:	e0bff415 	stw	r2,-48(fp)
   23014:	e0bff417 	ldw	r2,-48(fp)
   23018:	10800190 	cmplti	r2,r2,6
   2301c:	103fed1e 	bne	r2,zero,22fd4 <Sensor_Report+0x5c0>
		}
		printf("\n");
   23020:	01000284 	movi	r4,10
   23024:	002a9640 	call	2a964 <putchar>
		pf = &thresh.g[0][0];
   23028:	00800134 	movhi	r2,4
   2302c:	10b25f04 	addi	r2,r2,-13956
   23030:	e0bff815 	stw	r2,-32(fp)
		printf(" TH:g* ");
   23034:	01000134 	movhi	r4,4
   23038:	21218704 	addi	r4,r4,-31204
   2303c:	002a9240 	call	2a924 <printf>
		for (int i = 0; i < 6; i++) {
   23040:	e03ff315 	stw	zero,-52(fp)
   23044:	00001006 	br	23088 <Sensor_Report+0x674>
			printf("%.3f ", *pf++);
   23048:	e0bff817 	ldw	r2,-32(fp)
   2304c:	10c00104 	addi	r3,r2,4
   23050:	e0fff815 	stw	r3,-32(fp)
   23054:	10c00017 	ldw	r3,0(r2)
   23058:	1809883a 	mov	r4,r3
   2305c:	002a6280 	call	2a628 <__extendsfdf2>
   23060:	100d883a 	mov	r6,r2
   23064:	180f883a 	mov	r7,r3
   23068:	300b883a 	mov	r5,r6
   2306c:	380d883a 	mov	r6,r7
   23070:	01000134 	movhi	r4,4
   23074:	21217e04 	addi	r4,r4,-31240
   23078:	002a9240 	call	2a924 <printf>
		for (int i = 0; i < 6; i++) {
   2307c:	e0bff317 	ldw	r2,-52(fp)
   23080:	10800044 	addi	r2,r2,1
   23084:	e0bff315 	stw	r2,-52(fp)
   23088:	e0bff317 	ldw	r2,-52(fp)
   2308c:	10800190 	cmplti	r2,r2,6
   23090:	103fed1e 	bne	r2,zero,23048 <Sensor_Report+0x634>
		}
		printf("\n");
   23094:	01000284 	movi	r4,10
   23098:	002a9640 	call	2a964 <putchar>
		pf = &thresh.m[0][0];
   2309c:	00800134 	movhi	r2,4
   230a0:	10b26504 	addi	r2,r2,-13932
   230a4:	e0bff815 	stw	r2,-32(fp)
		printf(" TH:m* ");
   230a8:	01000134 	movhi	r4,4
   230ac:	21218904 	addi	r4,r4,-31196
   230b0:	002a9240 	call	2a924 <printf>
		for (int i = 0; i < 6; i++) {
   230b4:	e03ff215 	stw	zero,-56(fp)
   230b8:	00001006 	br	230fc <Sensor_Report+0x6e8>
			printf("%.3f ", *pf++);
   230bc:	e0bff817 	ldw	r2,-32(fp)
   230c0:	10c00104 	addi	r3,r2,4
   230c4:	e0fff815 	stw	r3,-32(fp)
   230c8:	10c00017 	ldw	r3,0(r2)
   230cc:	1809883a 	mov	r4,r3
   230d0:	002a6280 	call	2a628 <__extendsfdf2>
   230d4:	100d883a 	mov	r6,r2
   230d8:	180f883a 	mov	r7,r3
   230dc:	300b883a 	mov	r5,r6
   230e0:	380d883a 	mov	r6,r7
   230e4:	01000134 	movhi	r4,4
   230e8:	21217e04 	addi	r4,r4,-31240
   230ec:	002a9240 	call	2a924 <printf>
		for (int i = 0; i < 6; i++) {
   230f0:	e0bff217 	ldw	r2,-56(fp)
   230f4:	10800044 	addi	r2,r2,1
   230f8:	e0bff215 	stw	r2,-56(fp)
   230fc:	e0bff217 	ldw	r2,-56(fp)
   23100:	10800190 	cmplti	r2,r2,6
   23104:	103fed1e 	bne	r2,zero,230bc <Sensor_Report+0x6a8>
		}
		printf("\n");
   23108:	01000284 	movi	r4,10
   2310c:	002a9640 	call	2a964 <putchar>
#endif
		printf("\r\n");
   23110:	01000134 	movhi	r4,4
   23114:	21218b04 	addi	r4,r4,-31188
   23118:	002aa480 	call	2aa48 <puts>
	////////////////////////////////
	// Set sensor values in shared memory
	unsigned offst;

	// Light0,1
	offst = LIGHT0_SENSOR_VALUE >> 2;
   2311c:	00801004 	movi	r2,64
   23120:	e0bff015 	stw	r2,-64(fp)
	IOWR(NIOS_SYSTEM_SHARED_MEMORY_BASE, offst, light0);
   23124:	e0bff017 	ldw	r2,-64(fp)
   23128:	100490ba 	slli	r2,r2,2
   2312c:	10880004 	addi	r2,r2,8192
   23130:	e0ffee8b 	ldhu	r3,-70(fp)
   23134:	18ffffcc 	andi	r3,r3,65535
   23138:	10c00035 	stwio	r3,0(r2)
	offst = LIGHT1_SENSOR_VALUE >> 2;
   2313c:	00801044 	movi	r2,65
   23140:	e0bff015 	stw	r2,-64(fp)
	IOWR(NIOS_SYSTEM_SHARED_MEMORY_BASE, offst, light1);
   23144:	e0bff017 	ldw	r2,-64(fp)
   23148:	100490ba 	slli	r2,r2,2
   2314c:	10880004 	addi	r2,r2,8192
   23150:	e0ffee0b 	ldhu	r3,-72(fp)
   23154:	18ffffcc 	andi	r3,r3,65535
   23158:	10c00035 	stwio	r3,0(r2)
	unsigned *p;
	offst = LUX_SENSOR_VALUE >> 2;
   2315c:	00801084 	movi	r2,66
   23160:	e0bff015 	stw	r2,-64(fp)
	p = (unsigned *) &lux;
   23164:	e0bfed04 	addi	r2,fp,-76
   23168:	e0bfef15 	stw	r2,-68(fp)
	IOWR(NIOS_SYSTEM_SHARED_MEMORY_BASE, offst, *p);
   2316c:	e0bff017 	ldw	r2,-64(fp)
   23170:	100490ba 	slli	r2,r2,2
   23174:	10880004 	addi	r2,r2,8192
   23178:	e0ffef17 	ldw	r3,-68(fp)
   2317c:	18c00017 	ldw	r3,0(r3)
   23180:	10c00035 	stwio	r3,0(r2)

	// Temp. and Humidity
	offst = HUMIDI_SENSOR_VALUE >> 2;
   23184:	008010c4 	movi	r2,67
   23188:	e0bff015 	stw	r2,-64(fp)
	p = (unsigned *) &fHumidity;
   2318c:	e0bfeb04 	addi	r2,fp,-84
   23190:	e0bfef15 	stw	r2,-68(fp)
	IOWR(NIOS_SYSTEM_SHARED_MEMORY_BASE, offst, *p);
   23194:	e0bff017 	ldw	r2,-64(fp)
   23198:	100490ba 	slli	r2,r2,2
   2319c:	10880004 	addi	r2,r2,8192
   231a0:	e0ffef17 	ldw	r3,-68(fp)
   231a4:	18c00017 	ldw	r3,0(r3)
   231a8:	10c00035 	stwio	r3,0(r2)
	offst = TEMPER_SENSOR_VALUE >> 2;
   231ac:	00801104 	movi	r2,68
   231b0:	e0bff015 	stw	r2,-64(fp)
	p = (unsigned *) &fTemperature;
   231b4:	e0bfec04 	addi	r2,fp,-80
   231b8:	e0bfef15 	stw	r2,-68(fp)
	IOWR(NIOS_SYSTEM_SHARED_MEMORY_BASE, offst, *p);
   231bc:	e0bff017 	ldw	r2,-64(fp)
   231c0:	100490ba 	slli	r2,r2,2
   231c4:	10880004 	addi	r2,r2,8192
   231c8:	e0ffef17 	ldw	r3,-68(fp)
   231cc:	18c00017 	ldw	r3,0(r3)
   231d0:	10c00035 	stwio	r3,0(r2)

	// 9-Axes
	offst = ACCEL_X_SENSOR_VALUE >> 2;
   231d4:	00801144 	movi	r2,69
   231d8:	e0bff015 	stw	r2,-64(fp)
	p = (unsigned *) &a[0];
   231dc:	e0bfe804 	addi	r2,fp,-96
   231e0:	e0bfef15 	stw	r2,-68(fp)
	IOWR(NIOS_SYSTEM_SHARED_MEMORY_BASE, offst++, *p);
   231e4:	e0bff017 	ldw	r2,-64(fp)
   231e8:	10c00044 	addi	r3,r2,1
   231ec:	e0fff015 	stw	r3,-64(fp)
   231f0:	100490ba 	slli	r2,r2,2
   231f4:	10880004 	addi	r2,r2,8192
   231f8:	e0ffef17 	ldw	r3,-68(fp)
   231fc:	18c00017 	ldw	r3,0(r3)
   23200:	10c00035 	stwio	r3,0(r2)
	p = (unsigned *) &a[1];
   23204:	e0bfe804 	addi	r2,fp,-96
   23208:	10800104 	addi	r2,r2,4
   2320c:	e0bfef15 	stw	r2,-68(fp)
	IOWR(NIOS_SYSTEM_SHARED_MEMORY_BASE, offst++, *p);
   23210:	e0bff017 	ldw	r2,-64(fp)
   23214:	10c00044 	addi	r3,r2,1
   23218:	e0fff015 	stw	r3,-64(fp)
   2321c:	100490ba 	slli	r2,r2,2
   23220:	10880004 	addi	r2,r2,8192
   23224:	e0ffef17 	ldw	r3,-68(fp)
   23228:	18c00017 	ldw	r3,0(r3)
   2322c:	10c00035 	stwio	r3,0(r2)
	p = (unsigned *) &a[2];
   23230:	e0bfe804 	addi	r2,fp,-96
   23234:	10800204 	addi	r2,r2,8
   23238:	e0bfef15 	stw	r2,-68(fp)
	IOWR(NIOS_SYSTEM_SHARED_MEMORY_BASE, offst++, *p);
   2323c:	e0bff017 	ldw	r2,-64(fp)
   23240:	10c00044 	addi	r3,r2,1
   23244:	e0fff015 	stw	r3,-64(fp)
   23248:	100490ba 	slli	r2,r2,2
   2324c:	10880004 	addi	r2,r2,8192
   23250:	e0ffef17 	ldw	r3,-68(fp)
   23254:	18c00017 	ldw	r3,0(r3)
   23258:	10c00035 	stwio	r3,0(r2)
	offst = GYROS_X_SENSOR_VALUE >> 2;
   2325c:	00801204 	movi	r2,72
   23260:	e0bff015 	stw	r2,-64(fp)
	p = (unsigned *) &g[0];
   23264:	e0bfe504 	addi	r2,fp,-108
   23268:	e0bfef15 	stw	r2,-68(fp)
	IOWR(NIOS_SYSTEM_SHARED_MEMORY_BASE, offst++, *p);
   2326c:	e0bff017 	ldw	r2,-64(fp)
   23270:	10c00044 	addi	r3,r2,1
   23274:	e0fff015 	stw	r3,-64(fp)
   23278:	100490ba 	slli	r2,r2,2
   2327c:	10880004 	addi	r2,r2,8192
   23280:	e0ffef17 	ldw	r3,-68(fp)
   23284:	18c00017 	ldw	r3,0(r3)
   23288:	10c00035 	stwio	r3,0(r2)
	p = (unsigned *) &g[1];
   2328c:	e0bfe504 	addi	r2,fp,-108
   23290:	10800104 	addi	r2,r2,4
   23294:	e0bfef15 	stw	r2,-68(fp)
	IOWR(NIOS_SYSTEM_SHARED_MEMORY_BASE, offst++, *p);
   23298:	e0bff017 	ldw	r2,-64(fp)
   2329c:	10c00044 	addi	r3,r2,1
   232a0:	e0fff015 	stw	r3,-64(fp)
   232a4:	100490ba 	slli	r2,r2,2
   232a8:	10880004 	addi	r2,r2,8192
   232ac:	e0ffef17 	ldw	r3,-68(fp)
   232b0:	18c00017 	ldw	r3,0(r3)
   232b4:	10c00035 	stwio	r3,0(r2)
	p = (unsigned *) &g[2];
   232b8:	e0bfe504 	addi	r2,fp,-108
   232bc:	10800204 	addi	r2,r2,8
   232c0:	e0bfef15 	stw	r2,-68(fp)
	IOWR(NIOS_SYSTEM_SHARED_MEMORY_BASE, offst++, *p);
   232c4:	e0bff017 	ldw	r2,-64(fp)
   232c8:	10c00044 	addi	r3,r2,1
   232cc:	e0fff015 	stw	r3,-64(fp)
   232d0:	100490ba 	slli	r2,r2,2
   232d4:	10880004 	addi	r2,r2,8192
   232d8:	e0ffef17 	ldw	r3,-68(fp)
   232dc:	18c00017 	ldw	r3,0(r3)
   232e0:	10c00035 	stwio	r3,0(r2)
	offst = MAGNE_X_SENSOR_VALUE >> 2;
   232e4:	008012c4 	movi	r2,75
   232e8:	e0bff015 	stw	r2,-64(fp)
	p = (unsigned *) &m[0];
   232ec:	e0bfe204 	addi	r2,fp,-120
   232f0:	e0bfef15 	stw	r2,-68(fp)
	IOWR(NIOS_SYSTEM_SHARED_MEMORY_BASE, offst++, *p);
   232f4:	e0bff017 	ldw	r2,-64(fp)
   232f8:	10c00044 	addi	r3,r2,1
   232fc:	e0fff015 	stw	r3,-64(fp)
   23300:	100490ba 	slli	r2,r2,2
   23304:	10880004 	addi	r2,r2,8192
   23308:	e0ffef17 	ldw	r3,-68(fp)
   2330c:	18c00017 	ldw	r3,0(r3)
   23310:	10c00035 	stwio	r3,0(r2)
	p = (unsigned *) &m[1];
   23314:	e0bfe204 	addi	r2,fp,-120
   23318:	10800104 	addi	r2,r2,4
   2331c:	e0bfef15 	stw	r2,-68(fp)
	IOWR(NIOS_SYSTEM_SHARED_MEMORY_BASE, offst++, *p);
   23320:	e0bff017 	ldw	r2,-64(fp)
   23324:	10c00044 	addi	r3,r2,1
   23328:	e0fff015 	stw	r3,-64(fp)
   2332c:	100490ba 	slli	r2,r2,2
   23330:	10880004 	addi	r2,r2,8192
   23334:	e0ffef17 	ldw	r3,-68(fp)
   23338:	18c00017 	ldw	r3,0(r3)
   2333c:	10c00035 	stwio	r3,0(r2)
	p = (unsigned *) &m[2];
   23340:	e0bfe204 	addi	r2,fp,-120
   23344:	10800204 	addi	r2,r2,8
   23348:	e0bfef15 	stw	r2,-68(fp)
	IOWR(NIOS_SYSTEM_SHARED_MEMORY_BASE, offst++, *p);
   2334c:	e0bff017 	ldw	r2,-64(fp)
   23350:	10c00044 	addi	r3,r2,1
   23354:	e0fff015 	stw	r3,-64(fp)
   23358:	100490ba 	slli	r2,r2,2
   2335c:	10880004 	addi	r2,r2,8192
   23360:	e0ffef17 	ldw	r3,-68(fp)
   23364:	18c00017 	ldw	r3,0(r3)
   23368:	10c00035 	stwio	r3,0(r2)

}
   2336c:	0001883a 	nop
   23370:	e6fffc04 	addi	sp,fp,-16
   23374:	dfc00517 	ldw	ra,20(sp)
   23378:	df000417 	ldw	fp,16(sp)
   2337c:	dcc00317 	ldw	r19,12(sp)
   23380:	dc800217 	ldw	r18,8(sp)
   23384:	dc400117 	ldw	r17,4(sp)
   23388:	dc000017 	ldw	r16,0(sp)
   2338c:	dec00604 	addi	sp,sp,24
   23390:	f800283a 	ret

00023394 <Ad7790INIT>:
#define SEND_ACK_COMMUNICATION_REGISTER IOWR(NIOS_SYSTEM_SHARED_MEMORY_BASE, 1, 0)
#define SEND_STATUS_REGISTER(x) IOWR(NIOS_SYSTEM_SHARED_MEMORY_BASE, 0, (x))

//Custom
#ifdef CO_AX_SPI
void Ad7790INIT(void) {
   23394:	defffe04 	addi	sp,sp,-8
   23398:	dfc00115 	stw	ra,4(sp)
   2339c:	df000015 	stw	fp,0(sp)
   233a0:	d839883a 	mov	fp,sp
	writeAd7790(RESET, 0xFF);				//Resets the part for initial use
   233a4:	01403fc4 	movi	r5,255
   233a8:	01003fc4 	movi	r4,255
   233ac:	00206100 	call	20610 <writeAd7790>
	usleep(1000);
   233b0:	0100fa04 	movi	r4,1000
   233b4:	00361680 	call	36168 <usleep>
	writeAd7790(MODE_WRITE, 0x00);//Mode register value (single conversion, +/- Vref input, unbuffered mode)
   233b8:	000b883a 	mov	r5,zero
   233bc:	01000404 	movi	r4,16
   233c0:	00206100 	call	20610 <writeAd7790>
	writeAd7790(FILTER_WRITE, 0x07);// Filter register value (clock not divided down, 9.5 Hz update rate)
   233c4:	014001c4 	movi	r5,7
   233c8:	01000804 	movi	r4,32
   233cc:	00206100 	call	20610 <writeAd7790>
}
   233d0:	0001883a 	nop
   233d4:	e037883a 	mov	sp,fp
   233d8:	dfc00117 	ldw	ra,4(sp)
   233dc:	df000017 	ldw	fp,0(sp)
   233e0:	dec00204 	addi	sp,sp,8
   233e4:	f800283a 	ret

000233e8 <Ad5270INIT>:

void Ad5270INIT(void) {
   233e8:	defffe04 	addi	sp,sp,-8
   233ec:	dfc00115 	stw	ra,4(sp)
   233f0:	df000015 	stw	fp,0(sp)
   233f4:	d839883a 	mov	fp,sp
	writeAd5270(WRITE_CTRL_REG, 0x02);		//Enable RDAC writes
   233f8:	01400084 	movi	r5,2
   233fc:	010001c4 	movi	r4,7
   23400:	00202600 	call	20260 <writeAd5270>
}
   23404:	0001883a 	nop
   23408:	e037883a 	mov	sp,fp
   2340c:	dfc00117 	ldw	ra,4(sp)
   23410:	df000017 	ldw	fp,0(sp)
   23414:	dec00204 	addi	sp,sp,8
   23418:	f800283a 	ret

0002341c <calculateFeedbackResistor>:
#endif

float calculateFeedbackResistor(void) {
   2341c:	defffd04 	addi	sp,sp,-12
   23420:	dfc00215 	stw	ra,8(sp)
   23424:	df000115 	stw	fp,4(sp)
   23428:	df000104 	addi	fp,sp,4
	float fFeedback = 0;
   2342c:	e03fff15 	stw	zero,-4(fp)
	fFeedback = 1.2 / (ui16sensorRange * ui16sensitivity * pow(10, -9));//1.2 is the Vref of the circuit
   23430:	d0a0040b 	ldhu	r2,-32752(gp)
   23434:	10bfffcc 	andi	r2,r2,65535
   23438:	d0e0048b 	ldhu	r3,-32750(gp)
   2343c:	18ffffcc 	andi	r3,r3,65535
   23440:	180b883a 	mov	r5,r3
   23444:	1009883a 	mov	r4,r2
   23448:	0026b4c0 	call	26b4c <__mulsi3>
   2344c:	1009883a 	mov	r4,r2
   23450:	002a5700 	call	2a570 <__floatsidf>
   23454:	1011883a 	mov	r8,r2
   23458:	1813883a 	mov	r9,r3
   2345c:	01ba09f4 	movhi	r6,59431
   23460:	31b5a544 	addi	r6,r6,-10603
   23464:	01cf8474 	movhi	r7,15889
   23468:	39cb82c4 	addi	r7,r7,11787
   2346c:	4009883a 	mov	r4,r8
   23470:	480b883a 	mov	r5,r9
   23474:	00295100 	call	29510 <__muldf3>
   23478:	1009883a 	mov	r4,r2
   2347c:	180b883a 	mov	r5,r3
   23480:	2005883a 	mov	r2,r4
   23484:	2807883a 	mov	r3,r5
   23488:	100d883a 	mov	r6,r2
   2348c:	180f883a 	mov	r7,r3
   23490:	010cccf4 	movhi	r4,13107
   23494:	210cccc4 	addi	r4,r4,13107
   23498:	014ffcf4 	movhi	r5,16371
   2349c:	294cccc4 	addi	r5,r5,13107
   234a0:	0028a100 	call	28a10 <__divdf3>
   234a4:	1009883a 	mov	r4,r2
   234a8:	180b883a 	mov	r5,r3
   234ac:	2005883a 	mov	r2,r4
   234b0:	2807883a 	mov	r3,r5
   234b4:	1009883a 	mov	r4,r2
   234b8:	180b883a 	mov	r5,r3
   234bc:	002a7240 	call	2a724 <__truncdfsf2>
   234c0:	1007883a 	mov	r3,r2
   234c4:	e0ffff15 	stw	r3,-4(fp)
	return fFeedback;
   234c8:	e0bfff17 	ldw	r2,-4(fp)
   234cc:	1007883a 	mov	r3,r2
}
   234d0:	1805883a 	mov	r2,r3
   234d4:	e037883a 	mov	sp,fp
   234d8:	dfc00117 	ldw	ra,4(sp)
   234dc:	df000017 	ldw	fp,0(sp)
   234e0:	dec00204 	addi	sp,sp,8
   234e4:	f800283a 	ret

000234e8 <setResistorValue>:

uint16_t setResistorValue(float resistor) {
   234e8:	defffc04 	addi	sp,sp,-16
   234ec:	dfc00315 	stw	ra,12(sp)
   234f0:	df000215 	stw	fp,8(sp)
   234f4:	df000204 	addi	fp,sp,8
   234f8:	e13ffe15 	stw	r4,-8(fp)
	uint16_t ui16RdacCode = 0;
   234fc:	e03fff8d 	sth	zero,-2(fp)
	ui16RdacCode = (int) (resistor / (20000 / 1024));
   23500:	01506634 	movhi	r5,16792
   23504:	e13ffe17 	ldw	r4,-8(fp)
   23508:	0026fe00 	call	26fe0 <__divsf3>
   2350c:	1007883a 	mov	r3,r2
   23510:	1805883a 	mov	r2,r3
   23514:	1009883a 	mov	r4,r2
   23518:	0027e900 	call	27e90 <__fixsfsi>
   2351c:	e0bfff8d 	sth	r2,-2(fp)
	return ui16RdacCode;
   23520:	e0bfff8b 	ldhu	r2,-2(fp)
}
   23524:	e037883a 	mov	sp,fp
   23528:	dfc00117 	ldw	ra,4(sp)
   2352c:	df000017 	ldw	fp,0(sp)
   23530:	dec00204 	addi	sp,sp,8
   23534:	f800283a 	ret

00023538 <set_custom_thresh>:

void set_custom_thresh(void) {
   23538:	defff904 	addi	sp,sp,-28
   2353c:	df000615 	stw	fp,24(sp)
   23540:	df000604 	addi	fp,sp,24
		unsigned u;
		float f;
	} uf;

	// Light threshold
	offst = ADC0_SENSOR_L_THRESH >> 2;
   23544:	00804004 	movi	r2,256
   23548:	e0bfff15 	stw	r2,-4(fp)
	for (int i = 0; i < 2; i++) {
   2354c:	e03ffe15 	stw	zero,-8(fp)
   23550:	00000f06 	br	23590 <set_custom_thresh+0x58>
		custom_thresh.adc[0][i] = IORD(NIOS_SYSTEM_SHARED_MEMORY_BASE, offst++);
   23554:	e0bfff17 	ldw	r2,-4(fp)
   23558:	10c00044 	addi	r3,r2,1
   2355c:	e0ffff15 	stw	r3,-4(fp)
   23560:	100490ba 	slli	r2,r2,2
   23564:	10880004 	addi	r2,r2,8192
   23568:	10800037 	ldwio	r2,0(r2)
   2356c:	1009883a 	mov	r4,r2
   23570:	e0bffe17 	ldw	r2,-8(fp)
   23574:	100690ba 	slli	r3,r2,2
   23578:	00800134 	movhi	r2,4
   2357c:	1885883a 	add	r2,r3,r2
   23580:	11326b15 	stw	r4,-13908(r2)
	for (int i = 0; i < 2; i++) {
   23584:	e0bffe17 	ldw	r2,-8(fp)
   23588:	10800044 	addi	r2,r2,1
   2358c:	e0bffe15 	stw	r2,-8(fp)
   23590:	e0bffe17 	ldw	r2,-8(fp)
   23594:	10800090 	cmplti	r2,r2,2
   23598:	103fee1e 	bne	r2,zero,23554 <set_custom_thresh+0x1c>
	}
	offst = ADC1_SENSOR_L_THRESH >> 2;
   2359c:	00804084 	movi	r2,258
   235a0:	e0bfff15 	stw	r2,-4(fp)
	for (int i = 0; i < 2; i++) {
   235a4:	e03ffd15 	stw	zero,-12(fp)
   235a8:	00001006 	br	235ec <set_custom_thresh+0xb4>
		custom_thresh.adc[1][i] = IORD(NIOS_SYSTEM_SHARED_MEMORY_BASE, offst++);
   235ac:	e0bfff17 	ldw	r2,-4(fp)
   235b0:	10c00044 	addi	r3,r2,1
   235b4:	e0ffff15 	stw	r3,-4(fp)
   235b8:	100490ba 	slli	r2,r2,2
   235bc:	10880004 	addi	r2,r2,8192
   235c0:	10800037 	ldwio	r2,0(r2)
   235c4:	1009883a 	mov	r4,r2
   235c8:	e0bffd17 	ldw	r2,-12(fp)
   235cc:	10800084 	addi	r2,r2,2
   235d0:	100690ba 	slli	r3,r2,2
   235d4:	00800134 	movhi	r2,4
   235d8:	1885883a 	add	r2,r3,r2
   235dc:	11326b15 	stw	r4,-13908(r2)
	for (int i = 0; i < 2; i++) {
   235e0:	e0bffd17 	ldw	r2,-12(fp)
   235e4:	10800044 	addi	r2,r2,1
   235e8:	e0bffd15 	stw	r2,-12(fp)
   235ec:	e0bffd17 	ldw	r2,-12(fp)
   235f0:	10800090 	cmplti	r2,r2,2
   235f4:	103fed1e 	bne	r2,zero,235ac <set_custom_thresh+0x74>
	}
	offst = ADC2_SENSOR_L_THRESH >> 2;
   235f8:	00804104 	movi	r2,260
   235fc:	e0bfff15 	stw	r2,-4(fp)
	for (int i = 0; i < 2; i++) {
   23600:	e03ffc15 	stw	zero,-16(fp)
   23604:	00001006 	br	23648 <set_custom_thresh+0x110>
		custom_thresh.adc[2][i] = IORD(NIOS_SYSTEM_SHARED_MEMORY_BASE, offst++);
   23608:	e0bfff17 	ldw	r2,-4(fp)
   2360c:	10c00044 	addi	r3,r2,1
   23610:	e0ffff15 	stw	r3,-4(fp)
   23614:	100490ba 	slli	r2,r2,2
   23618:	10880004 	addi	r2,r2,8192
   2361c:	10800037 	ldwio	r2,0(r2)
   23620:	1009883a 	mov	r4,r2
   23624:	e0bffc17 	ldw	r2,-16(fp)
   23628:	10800104 	addi	r2,r2,4
   2362c:	100690ba 	slli	r3,r2,2
   23630:	00800134 	movhi	r2,4
   23634:	1885883a 	add	r2,r3,r2
   23638:	11326b15 	stw	r4,-13908(r2)
	for (int i = 0; i < 2; i++) {
   2363c:	e0bffc17 	ldw	r2,-16(fp)
   23640:	10800044 	addi	r2,r2,1
   23644:	e0bffc15 	stw	r2,-16(fp)
   23648:	e0bffc17 	ldw	r2,-16(fp)
   2364c:	10800090 	cmplti	r2,r2,2
   23650:	103fed1e 	bne	r2,zero,23608 <set_custom_thresh+0xd0>
	}
	offst = CO_SENSOR_L_THRESH >> 2;
   23654:	00804184 	movi	r2,262
   23658:	e0bfff15 	stw	r2,-4(fp)
	for (int i = 0; i < 2; i++) {
   2365c:	e03ffb15 	stw	zero,-20(fp)
   23660:	00001106 	br	236a8 <set_custom_thresh+0x170>
		uf.u = IORD(NIOS_SYSTEM_SHARED_MEMORY_BASE, offst++);
   23664:	e0bfff17 	ldw	r2,-4(fp)
   23668:	10c00044 	addi	r3,r2,1
   2366c:	e0ffff15 	stw	r3,-4(fp)
   23670:	100490ba 	slli	r2,r2,2
   23674:	10880004 	addi	r2,r2,8192
   23678:	10800037 	ldwio	r2,0(r2)
   2367c:	e0bffa15 	stw	r2,-24(fp)
		custom_thresh.co[i] = uf.f;
   23680:	e0fffa17 	ldw	r3,-24(fp)
   23684:	e0bffb17 	ldw	r2,-20(fp)
   23688:	10800184 	addi	r2,r2,6
   2368c:	100890ba 	slli	r4,r2,2
   23690:	00800134 	movhi	r2,4
   23694:	2085883a 	add	r2,r4,r2
   23698:	10f26b15 	stw	r3,-13908(r2)
	for (int i = 0; i < 2; i++) {
   2369c:	e0bffb17 	ldw	r2,-20(fp)
   236a0:	10800044 	addi	r2,r2,1
   236a4:	e0bffb15 	stw	r2,-20(fp)
   236a8:	e0bffb17 	ldw	r2,-20(fp)
   236ac:	10800090 	cmplti	r2,r2,2
   236b0:	103fec1e 	bne	r2,zero,23664 <set_custom_thresh+0x12c>
	}
}
   236b4:	0001883a 	nop
   236b8:	0001883a 	nop
   236bc:	e037883a 	mov	sp,fp
   236c0:	df000017 	ldw	fp,0(sp)
   236c4:	dec00104 	addi	sp,sp,4
   236c8:	f800283a 	ret

000236cc <check_adc0_threshold>:

bool check_adc0_threshold(int adc_val) {
   236cc:	defffd04 	addi	sp,sp,-12
   236d0:	df000215 	stw	fp,8(sp)
   236d4:	df000204 	addi	fp,sp,8
   236d8:	e13ffe15 	stw	r4,-8(fp)
	bool rv = false;
   236dc:	e03fffc5 	stb	zero,-1(fp)
	if (is_OutOfRange(adc_val, &custom_thresh.adc[0][0])) {
   236e0:	00800134 	movhi	r2,4
   236e4:	10b26b17 	ldw	r2,-13908(r2)
   236e8:	e0fffe17 	ldw	r3,-8(fp)
   236ec:	18800536 	bltu	r3,r2,23704 <check_adc0_threshold+0x38>
   236f0:	00800134 	movhi	r2,4
   236f4:	10b26c04 	addi	r2,r2,-13904
   236f8:	10c00017 	ldw	r3,0(r2)
   236fc:	e0bffe17 	ldw	r2,-8(fp)
   23700:	1880022e 	bgeu	r3,r2,2370c <check_adc0_threshold+0x40>
			rv = true;
   23704:	00800044 	movi	r2,1
   23708:	e0bfffc5 	stb	r2,-1(fp)
		}
	return rv;
   2370c:	e0bfffc3 	ldbu	r2,-1(fp)
}
   23710:	e037883a 	mov	sp,fp
   23714:	df000017 	ldw	fp,0(sp)
   23718:	dec00104 	addi	sp,sp,4
   2371c:	f800283a 	ret

00023720 <check_adc1_threshold>:

bool check_adc1_threshold(int adc_val) {
   23720:	defffd04 	addi	sp,sp,-12
   23724:	df000215 	stw	fp,8(sp)
   23728:	df000204 	addi	fp,sp,8
   2372c:	e13ffe15 	stw	r4,-8(fp)
	bool rv = false;
   23730:	e03fffc5 	stb	zero,-1(fp)
	if (is_OutOfRange(adc_val, &custom_thresh.adc[1][0])) {
   23734:	00800134 	movhi	r2,4
   23738:	10b26d17 	ldw	r2,-13900(r2)
   2373c:	e0fffe17 	ldw	r3,-8(fp)
   23740:	18800536 	bltu	r3,r2,23758 <check_adc1_threshold+0x38>
   23744:	00800134 	movhi	r2,4
   23748:	10b26e04 	addi	r2,r2,-13896
   2374c:	10c00017 	ldw	r3,0(r2)
   23750:	e0bffe17 	ldw	r2,-8(fp)
   23754:	1880022e 	bgeu	r3,r2,23760 <check_adc1_threshold+0x40>
			rv = true;
   23758:	00800044 	movi	r2,1
   2375c:	e0bfffc5 	stb	r2,-1(fp)
		}
	return rv;
   23760:	e0bfffc3 	ldbu	r2,-1(fp)
}
   23764:	e037883a 	mov	sp,fp
   23768:	df000017 	ldw	fp,0(sp)
   2376c:	dec00104 	addi	sp,sp,4
   23770:	f800283a 	ret

00023774 <check_adc2_threshold>:

bool check_adc2_threshold(int adc_val) {
   23774:	defffd04 	addi	sp,sp,-12
   23778:	df000215 	stw	fp,8(sp)
   2377c:	df000204 	addi	fp,sp,8
   23780:	e13ffe15 	stw	r4,-8(fp)
	bool rv = false;
   23784:	e03fffc5 	stb	zero,-1(fp)
	if (is_OutOfRange(adc_val, &custom_thresh.adc[2][0])) {
   23788:	00800134 	movhi	r2,4
   2378c:	10b26f17 	ldw	r2,-13892(r2)
   23790:	e0fffe17 	ldw	r3,-8(fp)
   23794:	18800536 	bltu	r3,r2,237ac <check_adc2_threshold+0x38>
   23798:	00800134 	movhi	r2,4
   2379c:	10b27004 	addi	r2,r2,-13888
   237a0:	10c00017 	ldw	r3,0(r2)
   237a4:	e0bffe17 	ldw	r2,-8(fp)
   237a8:	1880022e 	bgeu	r3,r2,237b4 <check_adc2_threshold+0x40>
			rv = true;
   237ac:	00800044 	movi	r2,1
   237b0:	e0bfffc5 	stb	r2,-1(fp)
		}
	return rv;
   237b4:	e0bfffc3 	ldbu	r2,-1(fp)
}
   237b8:	e037883a 	mov	sp,fp
   237bc:	df000017 	ldw	fp,0(sp)
   237c0:	dec00104 	addi	sp,sp,4
   237c4:	f800283a 	ret

000237c8 <check_co_threshold>:

bool check_co_threshold(float co_ppm){
   237c8:	defffc04 	addi	sp,sp,-16
   237cc:	dfc00315 	stw	ra,12(sp)
   237d0:	df000215 	stw	fp,8(sp)
   237d4:	df000204 	addi	fp,sp,8
   237d8:	e13ffe15 	stw	r4,-8(fp)
	bool rv = false;
   237dc:	e03fffc5 	stb	zero,-1(fp)
	if (is_OutOfRange(co_ppm, &custom_thresh.co[0])) {
   237e0:	00800134 	movhi	r2,4
   237e4:	10b27117 	ldw	r2,-13884(r2)
   237e8:	100b883a 	mov	r5,r2
   237ec:	e13ffe17 	ldw	r4,-8(fp)
   237f0:	00274fc0 	call	274fc <__lesf2>
   237f4:	10000716 	blt	r2,zero,23814 <check_co_threshold+0x4c>
   237f8:	00800134 	movhi	r2,4
   237fc:	10b27204 	addi	r2,r2,-13880
   23800:	10c00017 	ldw	r3,0(r2)
   23804:	180b883a 	mov	r5,r3
   23808:	e13ffe17 	ldw	r4,-8(fp)
   2380c:	00274440 	call	27444 <__gesf2>
   23810:	0080020e 	bge	zero,r2,2381c <check_co_threshold+0x54>
		rv = true;
   23814:	00800044 	movi	r2,1
   23818:	e0bfffc5 	stb	r2,-1(fp)
	}
	return rv;
   2381c:	e0bfffc3 	ldbu	r2,-1(fp)
}
   23820:	e037883a 	mov	sp,fp
   23824:	dfc00117 	ldw	ra,4(sp)
   23828:	df000017 	ldw	fp,0(sp)
   2382c:	dec00204 	addi	sp,sp,8
   23830:	f800283a 	ret

00023834 <main>:

int main() {
   23834:	deffea04 	addi	sp,sp,-88
   23838:	dfc01515 	stw	ra,84(sp)
   2383c:	df001415 	stw	fp,80(sp)
   23840:	dc401315 	stw	r17,76(sp)
   23844:	dc001215 	stw	r16,72(sp)
   23848:	df001404 	addi	fp,sp,80
//	fcntl(STDIN_FILENO, F_SETFL, O_NONBLOCK);

	printf("Welcome to DE10_NANO RFS_SENSOR DEMO!\r\n");
   2384c:	01000134 	movhi	r4,4
   23850:	21218c04 	addi	r4,r4,-31184
   23854:	002aa480 	call	2aa48 <puts>

	bool bPass = FALSE;
   23858:	e03ff6c5 	stb	zero,-37(fp)

	////////////////////////////////////
	// init light sensor i2c and power on
	Light_Init(LIGHT_I2C_OPENCORES_BASE);
   2385c:	01000134 	movhi	r4,4
   23860:	21040804 	addi	r4,r4,4128
   23864:	00217600 	call	21760 <Light_Init>
	bPass = Light_PowerSwitch(TRUE);
   23868:	01000044 	movi	r4,1
   2386c:	00218880 	call	21888 <Light_PowerSwitch>
   23870:	e0bff6c5 	stb	r2,-37(fp)
	if (bPass)
   23874:	e0bff6c3 	ldbu	r2,-37(fp)
   23878:	10000426 	beq	r2,zero,2388c <main+0x58>
		printf("light sensor power up successful!\r\n");
   2387c:	01000134 	movhi	r4,4
   23880:	21219604 	addi	r4,r4,-31144
   23884:	002aa480 	call	2aa48 <puts>
   23888:	00000306 	br	23898 <main+0x64>
	else
		printf("light sensor power up failed!\r\n");
   2388c:	01000134 	movhi	r4,4
   23890:	21219f04 	addi	r4,r4,-31108
   23894:	002aa480 	call	2aa48 <puts>

	////////////////////////////////////
	// init HDC1000: temperature and humidity sensor
	RH_Temp_Init(RH_TEMP_I2C_OPENCORES_BASE);
   23898:	01000134 	movhi	r4,4
   2389c:	21040004 	addi	r4,r4,4096
   238a0:	00250140 	call	25014 <RH_Temp_Init>
	bPass = RH_Temp_Sensor_Init();
   238a4:	00251580 	call	25158 <RH_Temp_Sensor_Init>
   238a8:	e0bff6c5 	stb	r2,-37(fp)
	if (bPass)
   238ac:	e0bff6c3 	ldbu	r2,-37(fp)
   238b0:	10000426 	beq	r2,zero,238c4 <main+0x90>
		printf("Init HDC1000 successful!\r\n");
   238b4:	01000134 	movhi	r4,4
   238b8:	2121a704 	addi	r4,r4,-31076
   238bc:	002aa480 	call	2aa48 <puts>
   238c0:	00000306 	br	238d0 <main+0x9c>
	else
		printf("Init HDC1000 failed!\r\n");
   238c4:	01000134 	movhi	r4,4
   238c8:	2121ae04 	addi	r4,r4,-31048
   238cc:	002aa480 	call	2aa48 <puts>

	////////////////////////////////////
	//init MPU9250 9-axis sensor
	MPU9250_Init(MPU_I2C_OPENCORES_BASE);
   238d0:	01000134 	movhi	r4,4
   238d4:	21041004 	addi	r4,r4,4160
   238d8:	0023e540 	call	23e54 <MPU9250_Init>
	MPU9250_initialize();
   238dc:	002428c0 	call	2428c <MPU9250_initialize>
	printf("\r\n");
   238e0:	01000134 	movhi	r4,4
   238e4:	21218b04 	addi	r4,r4,-31188
   238e8:	002aa480 	call	2aa48 <puts>

	int loop_cnt = 0;
   238ec:	e03ffd15 	stw	zero,-12(fp)

	//******CUSTOM*****//
#ifdef CO_AX_SPI
	Ad5270INIT();
   238f0:	00233e80 	call	233e8 <Ad5270INIT>
	fResistorValue = calculateFeedbackResistor();
   238f4:	002341c0 	call	2341c <calculateFeedbackResistor>
   238f8:	1007883a 	mov	r3,r2
   238fc:	d0e72115 	stw	r3,-25468(gp)
	ui16RdacWord = setResistorValue(fResistorValue);
   23900:	d0a72117 	ldw	r2,-25468(gp)
   23904:	1009883a 	mov	r4,r2
   23908:	00234e80 	call	234e8 <setResistorValue>
   2390c:	d0a7220d 	sth	r2,-25464(gp)
	writeAd5270(WRITE_RDAC, ui16RdacWord);
   23910:	d0a7220b 	ldhu	r2,-25464(gp)
   23914:	10bfffcc 	andi	r2,r2,65535
   23918:	100b883a 	mov	r5,r2
   2391c:	01000044 	movi	r4,1
   23920:	00202600 	call	20260 <writeAd5270>
	writeAd5270(HI_Z_PREP, 0x8001); // Putting Rheostat into high Z mode on SDO line
   23924:	01600054 	movui	r5,32769
   23928:	01003c04 	movi	r4,240
   2392c:	00202600 	call	20260 <writeAd5270>
	writeAd5270(HI_Z, 0x0000);
   23930:	000b883a 	mov	r5,zero
   23934:	010003c4 	movi	r4,15
   23938:	00202600 	call	20260 <writeAd5270>
	Ad7790INIT();
   2393c:	00233940 	call	23394 <Ad7790INIT>
#endif

	while (1) { // report every second

		SEND_STATUS_REGISTER(loop_cnt | 0x80000000);
   23940:	e0bffd17 	ldw	r2,-12(fp)
   23944:	10a00034 	orhi	r2,r2,32768
   23948:	00880035 	stwio	r2,8192(zero)
		//Mode select
		unsigned com_reg = READ_COMMUNICATION_REGISTER;
   2394c:	00880137 	ldwio	r2,8196(zero)
   23950:	e0bff515 	stw	r2,-44(fp)
		if ((com_reg & 0xffff0000) == 0xaaaa0000) {
   23954:	e0bff517 	ldw	r2,-44(fp)
   23958:	10ffffec 	andhi	r3,r2,65535
   2395c:	00aaaab4 	movhi	r2,43690
   23960:	18800e1e 	bne	r3,r2,2399c <main+0x168>
			SEND_ACK_COMMUNICATION_REGISTER; // Send ACK
   23964:	0005883a 	mov	r2,zero
   23968:	00880135 	stwio	r2,8196(zero)
			switch (com_reg & 0xffff) {
   2396c:	e0bff517 	ldw	r2,-44(fp)
   23970:	10bfffcc 	andi	r2,r2,65535
   23974:	10c00060 	cmpeqi	r3,r2,1
   23978:	1800031e 	bne	r3,zero,23988 <main+0x154>
   2397c:	108000a0 	cmpeqi	r2,r2,2
   23980:	1000031e 	bne	r2,zero,23990 <main+0x15c>
				break;
			case 2:
				g_clear_OOR_flag = true;
				break;
			default:
				break;
   23984:	00000606 	br	239a0 <main+0x16c>
				g_clear_OOR_flag = false;
   23988:	d0200505 	stb	zero,-32748(gp)
				break;
   2398c:	00000406 	br	239a0 <main+0x16c>
				g_clear_OOR_flag = true;
   23990:	00800044 	movi	r2,1
   23994:	d0a00505 	stb	r2,-32748(gp)
				break;
   23998:	00000106 	br	239a0 <main+0x16c>
			}
		}
   2399c:	0001883a 	nop

		set_thresh(); // Read threshold values from shared memory and set the thresh struct
   239a0:	00223a80 	call	223a8 <set_thresh>

		// print out values once every 16 loops
		bool print_flag = ((loop_cnt) & 0xF) == 0;
   239a4:	e0bffd17 	ldw	r2,-12(fp)
   239a8:	108003cc 	andi	r2,r2,15
   239ac:	1005003a 	cmpeq	r2,r2,zero
   239b0:	e0bff4c5 	stb	r2,-45(fp)
		Sensor_Report(print_flag);
   239b4:	e0bff4c3 	ldbu	r2,-45(fp)
   239b8:	1009883a 	mov	r4,r2
   239bc:	0022a140 	call	22a14 <Sensor_Report>

		// CUSTOM
		set_custom_thresh();
   239c0:	00235380 	call	23538 <set_custom_thresh>

		/** ADC Read Code **/
		unsigned int data0 = 0;
   239c4:	e03ff315 	stw	zero,-52(fp)
		unsigned int data1 = 1;
   239c8:	00800044 	movi	r2,1
   239cc:	e0bff215 	stw	r2,-56(fp)
		unsigned int data2 = 1;
   239d0:	00800044 	movi	r2,1
   239d4:	e0bff115 	stw	r2,-60(fp)
		int count = 0;
   239d8:	e03ff015 	stw	zero,-64(fp)
		int channel0 = 0;
   239dc:	e03fef15 	stw	zero,-68(fp)
		int channel1 = 1;
   239e0:	00800044 	movi	r2,1
   239e4:	e0bfee15 	stw	r2,-72(fp)
		int channel2 = 2;
   239e8:	00800084 	movi	r2,2
   239ec:	e0bfed15 	stw	r2,-76(fp)

		*adc = 0;	//start ADC reading
   239f0:	d0a00317 	ldw	r2,-32756(gp)
   239f4:	10000015 	stw	zero,0(r2)
		count += 1;
   239f8:	e0bff017 	ldw	r2,-64(fp)
   239fc:	10800044 	addi	r2,r2,1
   23a00:	e0bff015 	stw	r2,-64(fp)
		data0 = *(adc + channel0);
   23a04:	d0e00317 	ldw	r3,-32756(gp)
   23a08:	e0bfef17 	ldw	r2,-68(fp)
   23a0c:	100490ba 	slli	r2,r2,2
   23a10:	1885883a 	add	r2,r3,r2
   23a14:	10800017 	ldw	r2,0(r2)
   23a18:	e0bff315 	stw	r2,-52(fp)
		data1 = *(adc + channel1);
   23a1c:	d0e00317 	ldw	r3,-32756(gp)
   23a20:	e0bfee17 	ldw	r2,-72(fp)
   23a24:	100490ba 	slli	r2,r2,2
   23a28:	1885883a 	add	r2,r3,r2
   23a2c:	10800017 	ldw	r2,0(r2)
   23a30:	e0bff215 	stw	r2,-56(fp)
		data2 = *(adc + channel2);
   23a34:	d0e00317 	ldw	r3,-32756(gp)
   23a38:	e0bfed17 	ldw	r2,-76(fp)
   23a3c:	100490ba 	slli	r2,r2,2
   23a40:	1885883a 	add	r2,r3,r2
   23a44:	10800017 	ldw	r2,0(r2)
   23a48:	e0bff115 	stw	r2,-60(fp)
		if (print_flag) {
   23a4c:	e0bff4c3 	ldbu	r2,-45(fp)
   23a50:	10000626 	beq	r2,zero,23a6c <main+0x238>
			printf("Channel 0 is %4d.\t Channel1 is %4d.\t Channel2 is %4d.\n",
   23a54:	e1fff117 	ldw	r7,-60(fp)
   23a58:	e1bff217 	ldw	r6,-56(fp)
   23a5c:	e17ff317 	ldw	r5,-52(fp)
   23a60:	01000134 	movhi	r4,4
   23a64:	2121b404 	addi	r4,r4,-31024
   23a68:	002a9240 	call	2a924 <printf>
		}

		/** CO Sensor Read code **/
#ifdef CO_AX_SPI
		do {
			ui16Adcdata = readAd7790(STATUS_READ);
   23a6c:	01000204 	movi	r4,8
   23a70:	00204c40 	call	204c4 <readAd7790>
   23a74:	d0a7228d 	sth	r2,-25462(gp)
			//printf("ADC Status Reg value = %d\n", ui16Adcdata);
		} while (ui16Adcdata & 0x80);
   23a78:	d0a7228b 	ldhu	r2,-25462(gp)
   23a7c:	10bfffcc 	andi	r2,r2,65535
   23a80:	1080200c 	andi	r2,r2,128
   23a84:	103ff91e 	bne	r2,zero,23a6c <main+0x238>
		ui16Adcdata = readAd7790(DATA_READ);
   23a88:	01000e04 	movi	r4,56
   23a8c:	00204c40 	call	204c4 <readAd7790>
   23a90:	d0a7228d 	sth	r2,-25462(gp)
		fAdcVoltage = ((ui16Adcdata / pow(2, 15)) - 1) * 1.2;// Formula for input voltage using bipolar configuration
   23a94:	d0a7228b 	ldhu	r2,-25462(gp)
   23a98:	10bfffcc 	andi	r2,r2,65535
   23a9c:	1009883a 	mov	r4,r2
   23aa0:	002a5700 	call	2a570 <__floatsidf>
   23aa4:	1011883a 	mov	r8,r2
   23aa8:	1813883a 	mov	r9,r3
   23aac:	000d883a 	mov	r6,zero
   23ab0:	01d03834 	movhi	r7,16608
   23ab4:	4009883a 	mov	r4,r8
   23ab8:	480b883a 	mov	r5,r9
   23abc:	0028a100 	call	28a10 <__divdf3>
   23ac0:	1009883a 	mov	r4,r2
   23ac4:	180b883a 	mov	r5,r3
   23ac8:	2005883a 	mov	r2,r4
   23acc:	2807883a 	mov	r3,r5
   23ad0:	000d883a 	mov	r6,zero
   23ad4:	01cffc34 	movhi	r7,16368
   23ad8:	1009883a 	mov	r4,r2
   23adc:	180b883a 	mov	r5,r3
   23ae0:	0029cbc0 	call	29cbc <__subdf3>
   23ae4:	1009883a 	mov	r4,r2
   23ae8:	180b883a 	mov	r5,r3
   23aec:	2005883a 	mov	r2,r4
   23af0:	2807883a 	mov	r3,r5
   23af4:	018cccf4 	movhi	r6,13107
   23af8:	318cccc4 	addi	r6,r6,13107
   23afc:	01cffcf4 	movhi	r7,16371
   23b00:	39ccccc4 	addi	r7,r7,13107
   23b04:	1009883a 	mov	r4,r2
   23b08:	180b883a 	mov	r5,r3
   23b0c:	00295100 	call	29510 <__muldf3>
   23b10:	1009883a 	mov	r4,r2
   23b14:	180b883a 	mov	r5,r3
   23b18:	2005883a 	mov	r2,r4
   23b1c:	2807883a 	mov	r3,r5
   23b20:	1009883a 	mov	r4,r2
   23b24:	180b883a 	mov	r5,r3
   23b28:	002a7240 	call	2a724 <__truncdfsf2>
   23b2c:	1007883a 	mov	r3,r2
   23b30:	d0e72315 	stw	r3,-25460(gp)
		fConcentration = (abs(fAdcVoltage) / (ui16RdacWord * (20000 / 1024)))
   23b34:	d0a72317 	ldw	r2,-25460(gp)
   23b38:	1009883a 	mov	r4,r2
   23b3c:	0027e900 	call	27e90 <__fixsfsi>
   23b40:	1000010e 	bge	r2,zero,23b48 <main+0x314>
   23b44:	0085c83a 	sub	r2,zero,r2
   23b48:	1021883a 	mov	r16,r2
   23b4c:	d0a7220b 	ldhu	r2,-25464(gp)
   23b50:	10bfffcc 	andi	r2,r2,65535
   23b54:	014004c4 	movi	r5,19
   23b58:	1009883a 	mov	r4,r2
   23b5c:	0026b4c0 	call	26b4c <__mulsi3>
   23b60:	100b883a 	mov	r5,r2
   23b64:	8009883a 	mov	r4,r16
   23b68:	00269980 	call	26998 <__divsi3>
				/ (ui16sensitivity * pow(10, -9));
   23b6c:	1009883a 	mov	r4,r2
   23b70:	002a5700 	call	2a570 <__floatsidf>
   23b74:	1021883a 	mov	r16,r2
   23b78:	1823883a 	mov	r17,r3
   23b7c:	d0a0048b 	ldhu	r2,-32750(gp)
   23b80:	10bfffcc 	andi	r2,r2,65535
   23b84:	1009883a 	mov	r4,r2
   23b88:	002a5700 	call	2a570 <__floatsidf>
   23b8c:	1011883a 	mov	r8,r2
   23b90:	1813883a 	mov	r9,r3
   23b94:	01ba09f4 	movhi	r6,59431
   23b98:	31b5a544 	addi	r6,r6,-10603
   23b9c:	01cf8474 	movhi	r7,15889
   23ba0:	39cb82c4 	addi	r7,r7,11787
   23ba4:	4009883a 	mov	r4,r8
   23ba8:	480b883a 	mov	r5,r9
   23bac:	00295100 	call	29510 <__muldf3>
   23bb0:	1009883a 	mov	r4,r2
   23bb4:	180b883a 	mov	r5,r3
   23bb8:	2005883a 	mov	r2,r4
   23bbc:	2807883a 	mov	r3,r5
   23bc0:	100d883a 	mov	r6,r2
   23bc4:	180f883a 	mov	r7,r3
   23bc8:	8009883a 	mov	r4,r16
   23bcc:	880b883a 	mov	r5,r17
   23bd0:	0028a100 	call	28a10 <__divdf3>
   23bd4:	1009883a 	mov	r4,r2
   23bd8:	180b883a 	mov	r5,r3
   23bdc:	2005883a 	mov	r2,r4
   23be0:	2807883a 	mov	r3,r5
   23be4:	1009883a 	mov	r4,r2
   23be8:	180b883a 	mov	r5,r3
   23bec:	002a7240 	call	2a724 <__truncdfsf2>
   23bf0:	1007883a 	mov	r3,r2
		fConcentration = (abs(fAdcVoltage) / (ui16RdacWord * (20000 / 1024)))
   23bf4:	d0e72415 	stw	r3,-25456(gp)
#else
		ui16Adcdata = *(adc+3);
		//MISSING CONCENTRATION CALCULATION
		fConcentration = ui16Adcdata;	//Placeholder until concentration calculation implemented
#endif
		if (print_flag) {
   23bf8:	e0bff4c3 	ldbu	r2,-45(fp)
   23bfc:	10000a26 	beq	r2,zero,23c28 <main+0x3f4>
			printf("CO is %.2f ppm.\n", fConcentration);
   23c00:	d0a72417 	ldw	r2,-25456(gp)
   23c04:	1009883a 	mov	r4,r2
   23c08:	002a6280 	call	2a628 <__extendsfdf2>
   23c0c:	100d883a 	mov	r6,r2
   23c10:	180f883a 	mov	r7,r3
   23c14:	300b883a 	mov	r5,r6
   23c18:	380d883a 	mov	r6,r7
   23c1c:	01000134 	movhi	r4,4
   23c20:	2121c204 	addi	r4,r4,-30968
   23c24:	002a9240 	call	2a924 <printf>
		}

		if (print_flag) {
   23c28:	e0bff4c3 	ldbu	r2,-45(fp)
   23c2c:	10006526 	beq	r2,zero,23dc4 <main+0x590>
#ifdef DEBUG
			////////////////////////////////
			// Print out threshold values
			unsigned int *pi = &custom_thresh.adc[0][0];
   23c30:	00800134 	movhi	r2,4
   23c34:	10b26b04 	addi	r2,r2,-13908
   23c38:	e0bffc15 	stw	r2,-16(fp)
			printf(" TH:ADC0 ");
   23c3c:	01000134 	movhi	r4,4
   23c40:	2121c704 	addi	r4,r4,-30948
   23c44:	002a9240 	call	2a924 <printf>
			for (int i = 0; i < 4; i++) {
   23c48:	e03ffb15 	stw	zero,-20(fp)
   23c4c:	00000b06 	br	23c7c <main+0x448>
				printf("%d ", *pi++);
   23c50:	e0bffc17 	ldw	r2,-16(fp)
   23c54:	10c00104 	addi	r3,r2,4
   23c58:	e0fffc15 	stw	r3,-16(fp)
   23c5c:	10800017 	ldw	r2,0(r2)
   23c60:	100b883a 	mov	r5,r2
   23c64:	01000134 	movhi	r4,4
   23c68:	21217a04 	addi	r4,r4,-31256
   23c6c:	002a9240 	call	2a924 <printf>
			for (int i = 0; i < 4; i++) {
   23c70:	e0bffb17 	ldw	r2,-20(fp)
   23c74:	10800044 	addi	r2,r2,1
   23c78:	e0bffb15 	stw	r2,-20(fp)
   23c7c:	e0bffb17 	ldw	r2,-20(fp)
   23c80:	10800110 	cmplti	r2,r2,4
   23c84:	103ff21e 	bne	r2,zero,23c50 <main+0x41c>
			}
			printf("\n");
   23c88:	01000284 	movi	r4,10
   23c8c:	002a9640 	call	2a964 <putchar>
			pi = &custom_thresh.adc[1][0];
   23c90:	00800134 	movhi	r2,4
   23c94:	10b26d04 	addi	r2,r2,-13900
   23c98:	e0bffc15 	stw	r2,-16(fp)
			printf(" TH:ADC1 ");
   23c9c:	01000134 	movhi	r4,4
   23ca0:	2121ca04 	addi	r4,r4,-30936
   23ca4:	002a9240 	call	2a924 <printf>
			for (int i = 0; i < 4; i++) {
   23ca8:	e03ffa15 	stw	zero,-24(fp)
   23cac:	00000b06 	br	23cdc <main+0x4a8>
				printf("%d ", *pi++);
   23cb0:	e0bffc17 	ldw	r2,-16(fp)
   23cb4:	10c00104 	addi	r3,r2,4
   23cb8:	e0fffc15 	stw	r3,-16(fp)
   23cbc:	10800017 	ldw	r2,0(r2)
   23cc0:	100b883a 	mov	r5,r2
   23cc4:	01000134 	movhi	r4,4
   23cc8:	21217a04 	addi	r4,r4,-31256
   23ccc:	002a9240 	call	2a924 <printf>
			for (int i = 0; i < 4; i++) {
   23cd0:	e0bffa17 	ldw	r2,-24(fp)
   23cd4:	10800044 	addi	r2,r2,1
   23cd8:	e0bffa15 	stw	r2,-24(fp)
   23cdc:	e0bffa17 	ldw	r2,-24(fp)
   23ce0:	10800110 	cmplti	r2,r2,4
   23ce4:	103ff21e 	bne	r2,zero,23cb0 <main+0x47c>
			}
			printf("\n");
   23ce8:	01000284 	movi	r4,10
   23cec:	002a9640 	call	2a964 <putchar>
			pi = &custom_thresh.adc[2][0];
   23cf0:	00800134 	movhi	r2,4
   23cf4:	10b26f04 	addi	r2,r2,-13892
   23cf8:	e0bffc15 	stw	r2,-16(fp)
			printf(" TH:ADC2 ");
   23cfc:	01000134 	movhi	r4,4
   23d00:	2121cd04 	addi	r4,r4,-30924
   23d04:	002a9240 	call	2a924 <printf>
			for (int i = 0; i < 4; i++) {
   23d08:	e03ff915 	stw	zero,-28(fp)
   23d0c:	00000b06 	br	23d3c <main+0x508>
				printf("%d ", *pi++);
   23d10:	e0bffc17 	ldw	r2,-16(fp)
   23d14:	10c00104 	addi	r3,r2,4
   23d18:	e0fffc15 	stw	r3,-16(fp)
   23d1c:	10800017 	ldw	r2,0(r2)
   23d20:	100b883a 	mov	r5,r2
   23d24:	01000134 	movhi	r4,4
   23d28:	21217a04 	addi	r4,r4,-31256
   23d2c:	002a9240 	call	2a924 <printf>
			for (int i = 0; i < 4; i++) {
   23d30:	e0bff917 	ldw	r2,-28(fp)
   23d34:	10800044 	addi	r2,r2,1
   23d38:	e0bff915 	stw	r2,-28(fp)
   23d3c:	e0bff917 	ldw	r2,-28(fp)
   23d40:	10800110 	cmplti	r2,r2,4
   23d44:	103ff21e 	bne	r2,zero,23d10 <main+0x4dc>
			}
			printf("\n");
   23d48:	01000284 	movi	r4,10
   23d4c:	002a9640 	call	2a964 <putchar>
			float *pf;
			pf = &custom_thresh.co[0];
   23d50:	00800134 	movhi	r2,4
   23d54:	10b27104 	addi	r2,r2,-13884
   23d58:	e0bff815 	stw	r2,-32(fp)
			printf(" TH:CO ");
   23d5c:	01000134 	movhi	r4,4
   23d60:	2121d004 	addi	r4,r4,-30912
   23d64:	002a9240 	call	2a924 <printf>
			for (int i = 0; i < 2; i++) {
   23d68:	e03ff715 	stw	zero,-36(fp)
   23d6c:	00001006 	br	23db0 <main+0x57c>
				printf("%.3f ", *pf++);
   23d70:	e0bff817 	ldw	r2,-32(fp)
   23d74:	10c00104 	addi	r3,r2,4
   23d78:	e0fff815 	stw	r3,-32(fp)
   23d7c:	10c00017 	ldw	r3,0(r2)
   23d80:	1809883a 	mov	r4,r3
   23d84:	002a6280 	call	2a628 <__extendsfdf2>
   23d88:	100d883a 	mov	r6,r2
   23d8c:	180f883a 	mov	r7,r3
   23d90:	300b883a 	mov	r5,r6
   23d94:	380d883a 	mov	r6,r7
   23d98:	01000134 	movhi	r4,4
   23d9c:	21217e04 	addi	r4,r4,-31240
   23da0:	002a9240 	call	2a924 <printf>
			for (int i = 0; i < 2; i++) {
   23da4:	e0bff717 	ldw	r2,-36(fp)
   23da8:	10800044 	addi	r2,r2,1
   23dac:	e0bff715 	stw	r2,-36(fp)
   23db0:	e0bff717 	ldw	r2,-36(fp)
   23db4:	10800090 	cmplti	r2,r2,2
   23db8:	103fed1e 	bne	r2,zero,23d70 <main+0x53c>
			}
			printf("\n");
   23dbc:	01000284 	movi	r4,10
   23dc0:	002a9640 	call	2a964 <putchar>
		}

		/** SHARED MEM WRITE **/

		unsigned ofset;
		ofset = ADC0_SENSOR_VALUE >> 2;
   23dc4:	00803004 	movi	r2,192
   23dc8:	e0bfec15 	stw	r2,-80(fp)
		IOWR(NIOS_SYSTEM_SHARED_MEMORY_BASE, ofset, data0);
   23dcc:	e0bfec17 	ldw	r2,-80(fp)
   23dd0:	100490ba 	slli	r2,r2,2
   23dd4:	10880004 	addi	r2,r2,8192
   23dd8:	e0fff317 	ldw	r3,-52(fp)
   23ddc:	10c00035 	stwio	r3,0(r2)
		//for trial
		//ofset = LUX_SENSOR_VALUE>>2;
		//IOWR(NIOS_SYSTEM_SHARED_MEMORY_BASE, ofset, data0);

		ofset = ADC1_SENSOR_VALUE >> 2;
   23de0:	00803044 	movi	r2,193
   23de4:	e0bfec15 	stw	r2,-80(fp)
		IOWR(NIOS_SYSTEM_SHARED_MEMORY_BASE, ofset, data1);
   23de8:	e0bfec17 	ldw	r2,-80(fp)
   23dec:	100490ba 	slli	r2,r2,2
   23df0:	10880004 	addi	r2,r2,8192
   23df4:	e0fff217 	ldw	r3,-56(fp)
   23df8:	10c00035 	stwio	r3,0(r2)
		//for trial
		//ofset = LIGHT1_SENSOR_VALUE>>2;
		//IOWR(NIOS_SYSTEM_SHARED_MEMORY_BASE, ofset, data1);

		ofset = ADC2_SENSOR_VALUE >> 2;
   23dfc:	00803084 	movi	r2,194
   23e00:	e0bfec15 	stw	r2,-80(fp)
		IOWR(NIOS_SYSTEM_SHARED_MEMORY_BASE, ofset, data2);
   23e04:	e0bfec17 	ldw	r2,-80(fp)
   23e08:	100490ba 	slli	r2,r2,2
   23e0c:	10880004 	addi	r2,r2,8192
   23e10:	e0fff117 	ldw	r3,-60(fp)
   23e14:	10c00035 	stwio	r3,0(r2)

		ofset = CO_SENSOR_VALUE >> 2;
   23e18:	008030c4 	movi	r2,195
   23e1c:	e0bfec15 	stw	r2,-80(fp)
		IOWR(NIOS_SYSTEM_SHARED_MEMORY_BASE, ofset, fConcentration);
   23e20:	e0bfec17 	ldw	r2,-80(fp)
   23e24:	100490ba 	slli	r2,r2,2
   23e28:	14080004 	addi	r16,r2,8192
   23e2c:	d0a72417 	ldw	r2,-25456(gp)
   23e30:	1009883a 	mov	r4,r2
   23e34:	0027e900 	call	27e90 <__fixsfsi>
   23e38:	80800035 	stwio	r2,0(r16)

		usleep(1000 * 50);
   23e3c:	0130d414 	movui	r4,50000
   23e40:	00361680 	call	36168 <usleep>
		loop_cnt++;
   23e44:	e0bffd17 	ldw	r2,-12(fp)
   23e48:	10800044 	addi	r2,r2,1
   23e4c:	e0bffd15 	stw	r2,-12(fp)
	while (1) { // report every second
   23e50:	003ebb06 	br	23940 <main+0x10c>

00023e54 <MPU9250_Init>:
#include "terasic_includes.h"

#define G_SI 9.80665

void MPU9250_Init(alt_u32 I2C_Controller_Base)
{
   23e54:	defffb04 	addi	sp,sp,-20
   23e58:	dfc00415 	stw	ra,16(sp)
   23e5c:	df000315 	stw	fp,12(sp)
   23e60:	df000304 	addi	fp,sp,12
   23e64:	e13ffd15 	stw	r4,-12(fp)
	const int ref_clk = 50*1000*1000; // 50Mhz
   23e68:	0080bef4 	movhi	r2,763
   23e6c:	10bc2004 	addi	r2,r2,-3968
   23e70:	e0bfff15 	stw	r2,-4(fp)
	const int i2c_clk = 400*1000; // 400KHz
   23e74:	008001b4 	movhi	r2,6
   23e78:	1086a004 	addi	r2,r2,6784
   23e7c:	e0bffe15 	stw	r2,-8(fp)
//	MPU9250_I2C_Controller_Base = I2C_Controller_Base;
	oc_i2c_init_ex(I2C_Controller_Base, ref_clk, i2c_clk);
   23e80:	e0bffd17 	ldw	r2,-12(fp)
   23e84:	e1bffe17 	ldw	r6,-8(fp)
   23e88:	e17fff17 	ldw	r5,-4(fp)
   23e8c:	1009883a 	mov	r4,r2
   23e90:	00208240 	call	20824 <oc_i2c_init_ex>
}
   23e94:	0001883a 	nop
   23e98:	e037883a 	mov	sp,fp
   23e9c:	dfc00117 	ldw	ra,4(sp)
   23ea0:	df000017 	ldw	fp,0(sp)
   23ea4:	dec00204 	addi	sp,sp,8
   23ea8:	f800283a 	ret

00023eac <WriteReg>:
                                    REGISTER READ & WRITE
usage: use these methods to read and write MPU9250 registers over SPI
-----------------------------------------------------------------------------------------------*/

unsigned int WriteReg( uint8_t WriteAddr, uint8_t WriteData )
{
   23eac:	defffb04 	addi	sp,sp,-20
   23eb0:	dfc00415 	stw	ra,16(sp)
   23eb4:	df000315 	stw	fp,12(sp)
   23eb8:	df000304 	addi	fp,sp,12
   23ebc:	2005883a 	mov	r2,r4
   23ec0:	2807883a 	mov	r3,r5
   23ec4:	e0bfff05 	stb	r2,-4(fp)
   23ec8:	1805883a 	mov	r2,r3
   23ecc:	e0bffe05 	stb	r2,-8(fp)
#if 1
	if (WriteAddr & READ_FLAG)
   23ed0:	e0bfff03 	ldbu	r2,-4(fp)
   23ed4:	10803fcc 	andi	r2,r2,255
   23ed8:	1080201c 	xori	r2,r2,128
   23edc:	10bfe004 	addi	r2,r2,-128
   23ee0:	1000070e 	bge	r2,zero,23f00 <WriteReg+0x54>
		return ReadReg(WriteAddr, WriteData);
   23ee4:	e0bfff03 	ldbu	r2,-4(fp)
   23ee8:	e0fffe03 	ldbu	r3,-8(fp)
   23eec:	18c03fcc 	andi	r3,r3,255
   23ef0:	180b883a 	mov	r5,r3
   23ef4:	1009883a 	mov	r4,r2
   23ef8:	0023f400 	call	23f40 <ReadReg>
   23efc:	00000b06 	br	23f2c <WriteReg+0x80>
	OC_I2C_Write(MPU_I2C_OPENCORES_BASE, MPU_DEVICE_ADDR, WriteAddr, &WriteData, sizeof(WriteData));
   23f00:	e0ffff03 	ldbu	r3,-4(fp)
   23f04:	e13ffe04 	addi	r4,fp,-8
   23f08:	00800044 	movi	r2,1
   23f0c:	d8800015 	stw	r2,0(sp)
   23f10:	200f883a 	mov	r7,r4
   23f14:	180d883a 	mov	r6,r3
   23f18:	01403404 	movi	r5,208
   23f1c:	01000134 	movhi	r4,4
   23f20:	21041004 	addi	r4,r4,4160
   23f24:	0020b000 	call	20b00 <OC_I2C_Write>
	return 0x00;
   23f28:	0005883a 	mov	r2,zero

	SPIdev::transfer("/dev/spidev0.1", tx, rx, 2);

    return rx[1];
#endif
}
   23f2c:	e037883a 	mov	sp,fp
   23f30:	dfc00117 	ldw	ra,4(sp)
   23f34:	df000017 	ldw	fp,0(sp)
   23f38:	dec00204 	addi	sp,sp,8
   23f3c:	f800283a 	ret

00023f40 <ReadReg>:

//-----------------------------------------------------------------------------------------------

unsigned int  ReadReg( uint8_t WriteAddr, uint8_t WriteData )
{
   23f40:	defffa04 	addi	sp,sp,-24
   23f44:	dfc00515 	stw	ra,20(sp)
   23f48:	df000415 	stw	fp,16(sp)
   23f4c:	df000404 	addi	fp,sp,16
   23f50:	2005883a 	mov	r2,r4
   23f54:	2807883a 	mov	r3,r5
   23f58:	e0bffe05 	stb	r2,-8(fp)
   23f5c:	1805883a 	mov	r2,r3
   23f60:	e0bffd05 	stb	r2,-12(fp)
#if 1
	unsigned char ReadData;
	OC_I2C_Read(MPU_I2C_OPENCORES_BASE, MPU_DEVICE_ADDR, WriteAddr, &ReadData, sizeof(ReadData));
   23f64:	e0fffe03 	ldbu	r3,-8(fp)
   23f68:	e13fffc4 	addi	r4,fp,-1
   23f6c:	00800044 	movi	r2,1
   23f70:	d8800015 	stw	r2,0(sp)
   23f74:	200f883a 	mov	r7,r4
   23f78:	180d883a 	mov	r6,r3
   23f7c:	01403404 	movi	r5,208
   23f80:	01000134 	movhi	r4,4
   23f84:	21041004 	addi	r4,r4,4160
   23f88:	0020db40 	call	20db4 <OC_I2C_Read>
	return ReadData;
   23f8c:	e0bfffc3 	ldbu	r2,-1(fp)
   23f90:	10803fcc 	andi	r2,r2,255
#else
    return WriteReg(WriteAddr | READ_FLAG, WriteData);
#endif
}
   23f94:	e037883a 	mov	sp,fp
   23f98:	dfc00117 	ldw	ra,4(sp)
   23f9c:	df000017 	ldw	fp,0(sp)
   23fa0:	dec00204 	addi	sp,sp,8
   23fa4:	f800283a 	ret

00023fa8 <ReadRegs>:

//-----------------------------------------------------------------------------------------------
void ReadRegs( uint8_t ReadAddr, uint8_t *ReadBuf, unsigned int Bytes )
{
   23fa8:	defffa04 	addi	sp,sp,-24
   23fac:	dfc00515 	stw	ra,20(sp)
   23fb0:	df000415 	stw	fp,16(sp)
   23fb4:	df000404 	addi	fp,sp,16
   23fb8:	2005883a 	mov	r2,r4
   23fbc:	e17ffe15 	stw	r5,-8(fp)
   23fc0:	e1bffd15 	stw	r6,-12(fp)
   23fc4:	e0bfff05 	stb	r2,-4(fp)
#if 1
	OC_I2C_Read(MPU_I2C_OPENCORES_BASE, MPU_DEVICE_ADDR, ReadAddr, ReadBuf, Bytes);
   23fc8:	e0ffff03 	ldbu	r3,-4(fp)
   23fcc:	e0bffd17 	ldw	r2,-12(fp)
   23fd0:	d8800015 	stw	r2,0(sp)
   23fd4:	e1fffe17 	ldw	r7,-8(fp)
   23fd8:	180d883a 	mov	r6,r3
   23fdc:	01403404 	movi	r5,208
   23fe0:	01000134 	movhi	r4,4
   23fe4:	21041004 	addi	r4,r4,4160
   23fe8:	0020db40 	call	20db4 <OC_I2C_Read>
    for(i=0; i<Bytes; i++)
    	ReadBuf[i] = rx[i + 1];

    usleep(50);
#endif
}
   23fec:	0001883a 	nop
   23ff0:	e037883a 	mov	sp,fp
   23ff4:	dfc00117 	ldw	ra,4(sp)
   23ff8:	df000017 	ldw	fp,0(sp)
   23ffc:	dec00204 	addi	sp,sp,8
   24000:	f800283a 	ret

00024004 <set_acc_scale>:
BITS_FS_16G
returns the range set (2,4,8 or 16)
-----------------------------------------------------------------------------------------------*/

unsigned int set_acc_scale(int scale)
{
   24004:	defffc04 	addi	sp,sp,-16
   24008:	dfc00315 	stw	ra,12(sp)
   2400c:	df000215 	stw	fp,8(sp)
   24010:	df000204 	addi	fp,sp,8
   24014:	e13ffe15 	stw	r4,-8(fp)
	unsigned int temp_scale;
//	I2C_Write(MPU_I2C_SCL_BASE, MPU_I2C_SDA_BASE, MPU_DEVICE_ADDR, MPUREG_ACCEL_CONFIG, scale);
    WriteReg(MPUREG_ACCEL_CONFIG, scale);
   24018:	e0bffe17 	ldw	r2,-8(fp)
   2401c:	10803fcc 	andi	r2,r2,255
   24020:	100b883a 	mov	r5,r2
   24024:	01000704 	movi	r4,28
   24028:	0023eac0 	call	23eac <WriteReg>

    switch (scale){
   2402c:	e0bffe17 	ldw	r2,-8(fp)
   24030:	10800620 	cmpeqi	r2,r2,24
   24034:	1000181e 	bne	r2,zero,24098 <set_acc_scale+0x94>
   24038:	e0bffe17 	ldw	r2,-8(fp)
   2403c:	10800648 	cmpgei	r2,r2,25
   24040:	1000181e 	bne	r2,zero,240a4 <set_acc_scale+0xa0>
   24044:	e0bffe17 	ldw	r2,-8(fp)
   24048:	10800420 	cmpeqi	r2,r2,16
   2404c:	10000f1e 	bne	r2,zero,2408c <set_acc_scale+0x88>
   24050:	e0bffe17 	ldw	r2,-8(fp)
   24054:	10800448 	cmpgei	r2,r2,17
   24058:	1000121e 	bne	r2,zero,240a4 <set_acc_scale+0xa0>
   2405c:	e0bffe17 	ldw	r2,-8(fp)
   24060:	10000426 	beq	r2,zero,24074 <set_acc_scale+0x70>
   24064:	e0bffe17 	ldw	r2,-8(fp)
   24068:	10800220 	cmpeqi	r2,r2,8
   2406c:	1000041e 	bne	r2,zero,24080 <set_acc_scale+0x7c>
   24070:	00000c06 	br	240a4 <set_acc_scale+0xa0>
        case BITS_FS_2G:
            acc_divider=16384;
   24074:	0091a034 	movhi	r2,18048
   24078:	d0a72615 	stw	r2,-25448(gp)
        break;
   2407c:	00000906 	br	240a4 <set_acc_scale+0xa0>
        case BITS_FS_4G:
            acc_divider=8192;
   24080:	00918034 	movhi	r2,17920
   24084:	d0a72615 	stw	r2,-25448(gp)
        break;
   24088:	00000606 	br	240a4 <set_acc_scale+0xa0>
        case BITS_FS_8G:
            acc_divider=4096;
   2408c:	00916034 	movhi	r2,17792
   24090:	d0a72615 	stw	r2,-25448(gp)
        break;
   24094:	00000306 	br	240a4 <set_acc_scale+0xa0>
        case BITS_FS_16G:
            acc_divider=2048;
   24098:	00914034 	movhi	r2,17664
   2409c:	d0a72615 	stw	r2,-25448(gp)
        break;
   240a0:	0001883a 	nop
    }
//    I2C_Read(MPU_I2C_SCL_BASE, MPU_I2C_SDA_BASE, MPU_DEVICE_ADDR, MPUREG_ACCEL_CONFIG, &temp_scale);
	temp_scale=WriteReg(MPUREG_ACCEL_CONFIG|READ_FLAG, 0x00);
   240a4:	000b883a 	mov	r5,zero
   240a8:	01002704 	movi	r4,156
   240ac:	0023eac0 	call	23eac <WriteReg>
   240b0:	e0bfff15 	stw	r2,-4(fp)

    switch (temp_scale){
   240b4:	e0bfff17 	ldw	r2,-4(fp)
   240b8:	10800620 	cmpeqi	r2,r2,24
   240bc:	1000181e 	bne	r2,zero,24120 <set_acc_scale+0x11c>
   240c0:	e0bfff17 	ldw	r2,-4(fp)
   240c4:	10800668 	cmpgeui	r2,r2,25
   240c8:	1000181e 	bne	r2,zero,2412c <set_acc_scale+0x128>
   240cc:	e0bfff17 	ldw	r2,-4(fp)
   240d0:	10800420 	cmpeqi	r2,r2,16
   240d4:	10000f1e 	bne	r2,zero,24114 <set_acc_scale+0x110>
   240d8:	e0bfff17 	ldw	r2,-4(fp)
   240dc:	10800468 	cmpgeui	r2,r2,17
   240e0:	1000121e 	bne	r2,zero,2412c <set_acc_scale+0x128>
   240e4:	e0bfff17 	ldw	r2,-4(fp)
   240e8:	10000426 	beq	r2,zero,240fc <set_acc_scale+0xf8>
   240ec:	e0bfff17 	ldw	r2,-4(fp)
   240f0:	10800220 	cmpeqi	r2,r2,8
   240f4:	1000041e 	bne	r2,zero,24108 <set_acc_scale+0x104>
   240f8:	00000c06 	br	2412c <set_acc_scale+0x128>
        case BITS_FS_2G:
            temp_scale=2;
   240fc:	00800084 	movi	r2,2
   24100:	e0bfff15 	stw	r2,-4(fp)
        break;
   24104:	00000906 	br	2412c <set_acc_scale+0x128>
        case BITS_FS_4G:
            temp_scale=4;
   24108:	00800104 	movi	r2,4
   2410c:	e0bfff15 	stw	r2,-4(fp)
        break;
   24110:	00000606 	br	2412c <set_acc_scale+0x128>
        case BITS_FS_8G:
            temp_scale=8;
   24114:	00800204 	movi	r2,8
   24118:	e0bfff15 	stw	r2,-4(fp)
        break;
   2411c:	00000306 	br	2412c <set_acc_scale+0x128>
        case BITS_FS_16G:
            temp_scale=16;
   24120:	00800404 	movi	r2,16
   24124:	e0bfff15 	stw	r2,-4(fp)
        break;
   24128:	0001883a 	nop
    }
    return temp_scale;
   2412c:	e0bfff17 	ldw	r2,-4(fp)
}
   24130:	e037883a 	mov	sp,fp
   24134:	dfc00117 	ldw	ra,4(sp)
   24138:	df000017 	ldw	fp,0(sp)
   2413c:	dec00204 	addi	sp,sp,8
   24140:	f800283a 	ret

00024144 <set_gyro_scale>:
BITS_FS_2000DPS
returns the range set (250,500,1000 or 2000)
-----------------------------------------------------------------------------------------------*/

unsigned int set_gyro_scale(int scale)
{
   24144:	defffc04 	addi	sp,sp,-16
   24148:	dfc00315 	stw	ra,12(sp)
   2414c:	df000215 	stw	fp,8(sp)
   24150:	df000204 	addi	fp,sp,8
   24154:	e13ffe15 	stw	r4,-8(fp)
    unsigned int temp_scale;
//    I2C_Write(MPU_I2C_SCL_BASE, MPU_I2C_SDA_BASE, MPU_DEVICE_ADDR, MPUREG_GYRO_CONFIG, scale);
    WriteReg(MPUREG_GYRO_CONFIG, scale);
   24158:	e0bffe17 	ldw	r2,-8(fp)
   2415c:	10803fcc 	andi	r2,r2,255
   24160:	100b883a 	mov	r5,r2
   24164:	010006c4 	movi	r4,27
   24168:	0023eac0 	call	23eac <WriteReg>
    switch (scale){
   2416c:	e0bffe17 	ldw	r2,-8(fp)
   24170:	10800620 	cmpeqi	r2,r2,24
   24174:	1000191e 	bne	r2,zero,241dc <set_gyro_scale+0x98>
   24178:	e0bffe17 	ldw	r2,-8(fp)
   2417c:	10800648 	cmpgei	r2,r2,25
   24180:	10001a1e 	bne	r2,zero,241ec <set_gyro_scale+0xa8>
   24184:	e0bffe17 	ldw	r2,-8(fp)
   24188:	10800420 	cmpeqi	r2,r2,16
   2418c:	10000f1e 	bne	r2,zero,241cc <set_gyro_scale+0x88>
   24190:	e0bffe17 	ldw	r2,-8(fp)
   24194:	10800448 	cmpgei	r2,r2,17
   24198:	1000141e 	bne	r2,zero,241ec <set_gyro_scale+0xa8>
   2419c:	e0bffe17 	ldw	r2,-8(fp)
   241a0:	10000426 	beq	r2,zero,241b4 <set_gyro_scale+0x70>
   241a4:	e0bffe17 	ldw	r2,-8(fp)
   241a8:	10800220 	cmpeqi	r2,r2,8
   241ac:	1000041e 	bne	r2,zero,241c0 <set_gyro_scale+0x7c>
   241b0:	00000e06 	br	241ec <set_gyro_scale+0xa8>
        case BITS_FS_250DPS:
            gyro_divider=131;
   241b4:	0090c0f4 	movhi	r2,17155
   241b8:	d0a72715 	stw	r2,-25444(gp)
        break;
   241bc:	00000b06 	br	241ec <set_gyro_scale+0xa8>
        case BITS_FS_500DPS:
            gyro_divider=65.5;
   241c0:	0090a0f4 	movhi	r2,17027
   241c4:	d0a72715 	stw	r2,-25444(gp)
        break;
   241c8:	00000806 	br	241ec <set_gyro_scale+0xa8>
        case BITS_FS_1000DPS:
            gyro_divider=32.8;
   241cc:	009080f4 	movhi	r2,16899
   241d0:	108cccc4 	addi	r2,r2,13107
   241d4:	d0a72715 	stw	r2,-25444(gp)
        break;
   241d8:	00000406 	br	241ec <set_gyro_scale+0xa8>
        case BITS_FS_2000DPS:
            gyro_divider=16.4;
   241dc:	009060f4 	movhi	r2,16771
   241e0:	108cccc4 	addi	r2,r2,13107
   241e4:	d0a72715 	stw	r2,-25444(gp)
        break;
   241e8:	0001883a 	nop
    }
//    I2C_Read(MPU_I2C_SCL_BASE, MPU_I2C_SDA_BASE, MPU_DEVICE_ADDR, MPUREG_GYRO_CONFIG, &temp_scale);
    temp_scale=WriteReg(MPUREG_GYRO_CONFIG|READ_FLAG, 0x00);
   241ec:	000b883a 	mov	r5,zero
   241f0:	010026c4 	movi	r4,155
   241f4:	0023eac0 	call	23eac <WriteReg>
   241f8:	e0bfff15 	stw	r2,-4(fp)
    switch (temp_scale){
   241fc:	e0bfff17 	ldw	r2,-4(fp)
   24200:	10800620 	cmpeqi	r2,r2,24
   24204:	1000181e 	bne	r2,zero,24268 <set_gyro_scale+0x124>
   24208:	e0bfff17 	ldw	r2,-4(fp)
   2420c:	10800668 	cmpgeui	r2,r2,25
   24210:	1000181e 	bne	r2,zero,24274 <set_gyro_scale+0x130>
   24214:	e0bfff17 	ldw	r2,-4(fp)
   24218:	10800420 	cmpeqi	r2,r2,16
   2421c:	10000f1e 	bne	r2,zero,2425c <set_gyro_scale+0x118>
   24220:	e0bfff17 	ldw	r2,-4(fp)
   24224:	10800468 	cmpgeui	r2,r2,17
   24228:	1000121e 	bne	r2,zero,24274 <set_gyro_scale+0x130>
   2422c:	e0bfff17 	ldw	r2,-4(fp)
   24230:	10000426 	beq	r2,zero,24244 <set_gyro_scale+0x100>
   24234:	e0bfff17 	ldw	r2,-4(fp)
   24238:	10800220 	cmpeqi	r2,r2,8
   2423c:	1000041e 	bne	r2,zero,24250 <set_gyro_scale+0x10c>
   24240:	00000c06 	br	24274 <set_gyro_scale+0x130>
        case BITS_FS_250DPS:
            temp_scale=250;
   24244:	00803e84 	movi	r2,250
   24248:	e0bfff15 	stw	r2,-4(fp)
        break;
   2424c:	00000906 	br	24274 <set_gyro_scale+0x130>
        case BITS_FS_500DPS:
            temp_scale=500;
   24250:	00807d04 	movi	r2,500
   24254:	e0bfff15 	stw	r2,-4(fp)
        break;
   24258:	00000606 	br	24274 <set_gyro_scale+0x130>
        case BITS_FS_1000DPS:
            temp_scale=1000;
   2425c:	0080fa04 	movi	r2,1000
   24260:	e0bfff15 	stw	r2,-4(fp)
        break;
   24264:	00000306 	br	24274 <set_gyro_scale+0x130>
        case BITS_FS_2000DPS:
            temp_scale=2000;
   24268:	0081f404 	movi	r2,2000
   2426c:	e0bfff15 	stw	r2,-4(fp)
        break;
   24270:	0001883a 	nop
    }
    return temp_scale;
   24274:	e0bfff17 	ldw	r2,-4(fp)
}
   24278:	e037883a 	mov	sp,fp
   2427c:	dfc00117 	ldw	ra,4(sp)
   24280:	df000017 	ldw	fp,0(sp)
   24284:	dec00204 	addi	sp,sp,8
   24288:	f800283a 	ret

0002428c <MPU9250_initialize>:
-----------------------------------------------------------------------------------------------*/

#define MPU_InitRegNum 16

bool MPU9250_initialize()
{
   2428c:	defff404 	addi	sp,sp,-48
   24290:	dfc00b15 	stw	ra,44(sp)
   24294:	df000a15 	stw	fp,40(sp)
   24298:	df000a04 	addi	fp,sp,40
	alt_u8 i = 0;
   2429c:	e03fffc5 	stb	zero,-1(fp)
	int low_pass_filter = 0x01;
   242a0:	00800044 	movi	r2,1
   242a4:	e0bffe15 	stw	r2,-8(fp)
	alt_u8 MPU_Init_Data[MPU_InitRegNum][2] =
   242a8:	009ac044 	movi	r2,27393
   242ac:	e0bff60d 	sth	r2,-40(fp)
   242b0:	009b0004 	movi	r2,27648
   242b4:	e0bff68d 	sth	r2,-38(fp)
   242b8:	e0bffe17 	ldw	r2,-8(fp)
   242bc:	e0bff705 	stb	r2,-36(fp)
   242c0:	00800684 	movi	r2,26
   242c4:	e0bff745 	stb	r2,-35(fp)
   242c8:	0086c604 	movi	r2,6936
   242cc:	e0bff78d 	sth	r2,-34(fp)
   242d0:	00870204 	movi	r2,7176
   242d4:	e0bff80d 	sth	r2,-32(fp)
   242d8:	00874244 	movi	r2,7433
   242dc:	e0bff88d 	sth	r2,-30(fp)
   242e0:	008dcc04 	movi	r2,14128
   242e4:	e0bff90d 	sth	r2,-28(fp)
   242e8:	009a8804 	movi	r2,27168
   242ec:	e0bff98d 	sth	r2,-26(fp)
   242f0:	00890344 	movi	r2,9229
   242f4:	e0bffa0d 	sth	r2,-24(fp)
   242f8:	00894304 	movi	r2,9484
   242fc:	e0bffa8d 	sth	r2,-22(fp)
   24300:	008982c4 	movi	r2,9739
   24304:	e0bffb0d 	sth	r2,-20(fp)
   24308:	0098c044 	movi	r2,25345
   2430c:	e0bffb8d 	sth	r2,-18(fp)
   24310:	0089e044 	movi	r2,10113
   24314:	e0bffc0d 	sth	r2,-16(fp)
   24318:	00898284 	movi	r2,9738
   2431c:	e0bffc8d 	sth	r2,-14(fp)
   24320:	0098c484 	movi	r2,25362
   24324:	e0bffd0d 	sth	r2,-12(fp)
   24328:	0089e044 	movi	r2,10113
   2432c:	e0bffd8d 	sth	r2,-10(fp)
	        {AK8963_CNTL1, MPUREG_I2C_SLV0_REG}, //I2C slave 0 register address from where to begin data transfer
	        {0x12, MPUREG_I2C_SLV0_DO}, // Register value to continuous measurement in 16bit
	        {0x81, MPUREG_I2C_SLV0_CTRL}  //Enable I2C and set 1 byte
	};

	for(i = 0; i < MPU_InitRegNum; i++)
   24330:	e03fffc5 	stb	zero,-1(fp)
   24334:	00001306 	br	24384 <MPU9250_initialize+0xf8>
	{
//		I2C_Write(MPU_I2C_SCL_BASE, MPU_I2C_SDA_BASE, MPU_DEVICE_ADDR, MPU_Init_Data[i][1], MPU_Init_Data[i][0]);
		WriteReg(MPU_Init_Data[i][1], MPU_Init_Data[i][0]);
   24338:	e0bfffc3 	ldbu	r2,-1(fp)
   2433c:	1085883a 	add	r2,r2,r2
   24340:	e085883a 	add	r2,fp,r2
   24344:	10bff643 	ldbu	r2,-39(r2)
   24348:	10c03fcc 	andi	r3,r2,255
   2434c:	e0bfffc3 	ldbu	r2,-1(fp)
   24350:	1085883a 	add	r2,r2,r2
   24354:	e085883a 	add	r2,fp,r2
   24358:	10bff603 	ldbu	r2,-40(r2)
   2435c:	10803fcc 	andi	r2,r2,255
   24360:	100b883a 	mov	r5,r2
   24364:	1809883a 	mov	r4,r3
   24368:	0023eac0 	call	23eac <WriteReg>
	    usleep(100000);  //I2C must slow down the write speed, otherwise it won't work
   2436c:	010000b4 	movhi	r4,2
   24370:	2121a804 	addi	r4,r4,-31072
   24374:	00361680 	call	36168 <usleep>
	for(i = 0; i < MPU_InitRegNum; i++)
   24378:	e0bfffc3 	ldbu	r2,-1(fp)
   2437c:	10800044 	addi	r2,r2,1
   24380:	e0bfffc5 	stb	r2,-1(fp)
   24384:	e0bfffc3 	ldbu	r2,-1(fp)
   24388:	10800430 	cmpltui	r2,r2,16
   2438c:	103fea1e 	bne	r2,zero,24338 <MPU9250_initialize+0xac>
	}

	set_acc_scale(BITS_FS_16G);
   24390:	01000604 	movi	r4,24
   24394:	00240040 	call	24004 <set_acc_scale>
	set_gyro_scale(BITS_FS_2000DPS);
   24398:	01000604 	movi	r4,24
   2439c:	00241440 	call	24144 <set_gyro_scale>

	calib_mag();
   243a0:	00244b00 	call	244b0 <calib_mag>

	return 0;
   243a4:	0005883a 	mov	r2,zero
}
   243a8:	e037883a 	mov	sp,fp
   243ac:	dfc00117 	ldw	ra,4(sp)
   243b0:	df000017 	ldw	fp,0(sp)
   243b4:	dec00204 	addi	sp,sp,8
   243b8:	f800283a 	ret

000243bc <calib_acc>:
2 -> Z axis
returns Factory Trim value
-----------------------------------------------------------------------------------------------*/

void calib_acc()
{
   243bc:	defffc04 	addi	sp,sp,-16
   243c0:	dfc00315 	stw	ra,12(sp)
   243c4:	df000215 	stw	fp,8(sp)
   243c8:	df000204 	addi	fp,sp,8
	alt_u8 response[4];
    int temp_scale;
    //READ CURRENT ACC SCALE

//    I2C_Read(MPU_I2C_SCL_BASE, MPU_I2C_SDA_BASE, MPU_DEVICE_ADDR, MPUREG_ACCEL_CONFIG, &temp_scale);
    temp_scale=WriteReg(MPUREG_ACCEL_CONFIG|READ_FLAG, 0x00);
   243cc:	000b883a 	mov	r5,zero
   243d0:	01002704 	movi	r4,156
   243d4:	0023eac0 	call	23eac <WriteReg>
   243d8:	e0bfff15 	stw	r2,-4(fp)
    set_acc_scale(BITS_FS_8G);
   243dc:	01000404 	movi	r4,16
   243e0:	00240040 	call	24004 <set_acc_scale>
    //ENABLE SELF TEST need modify
    //temp_scale=WriteReg(MPUREG_ACCEL_CONFIG, 0x80>>axis);

//    I2C_MultipleRead(MPU_I2C_SCL_BASE, MPU_I2C_SDA_BASE, MPU_DEVICE_ADDR, MPUREG_SELF_TEST_X, response, 4);
    ReadRegs(MPUREG_SELF_TEST_X,response,4);
   243e4:	e0bffe04 	addi	r2,fp,-8
   243e8:	01800104 	movi	r6,4
   243ec:	100b883a 	mov	r5,r2
   243f0:	01000344 	movi	r4,13
   243f4:	0023fa80 	call	23fa8 <ReadRegs>
    calib_data[0]=((response[0]&11100000)>>3)|((response[3]&00110000)>>4);
   243f8:	e0bffe03 	ldbu	r2,-8(fp)
   243fc:	10803fcc 	andi	r2,r2,255
   24400:	1007d0fa 	srai	r3,r2,3
   24404:	00800574 	movhi	r2,21
   24408:	108afb04 	addi	r2,r2,11244
   2440c:	1886703a 	and	r3,r3,r2
   24410:	e0bffec3 	ldbu	r2,-5(fp)
   24414:	10803fcc 	andi	r2,r2,255
   24418:	1005d13a 	srai	r2,r2,4
   2441c:	1082400c 	andi	r2,r2,2304
   24420:	1886b03a 	or	r3,r3,r2
   24424:	00800134 	movhi	r2,4
   24428:	10f27315 	stw	r3,-13876(r2)
    calib_data[1]=((response[1]&11100000)>>3)|((response[3]&00001100)>>2);
   2442c:	e0bffe43 	ldbu	r2,-7(fp)
   24430:	10803fcc 	andi	r2,r2,255
   24434:	1007d0fa 	srai	r3,r2,3
   24438:	00800574 	movhi	r2,21
   2443c:	108afb04 	addi	r2,r2,11244
   24440:	1886703a 	and	r3,r3,r2
   24444:	e0bffec3 	ldbu	r2,-5(fp)
   24448:	10803fcc 	andi	r2,r2,255
   2444c:	1005d0ba 	srai	r2,r2,2
   24450:	1080240c 	andi	r2,r2,144
   24454:	1886b03a 	or	r3,r3,r2
   24458:	00800134 	movhi	r2,4
   2445c:	10f27415 	stw	r3,-13872(r2)
    calib_data[2]=((response[2]&11100000)>>3)|((response[3]&00000011));
   24460:	e0bffe83 	ldbu	r2,-6(fp)
   24464:	10803fcc 	andi	r2,r2,255
   24468:	1007d0fa 	srai	r3,r2,3
   2446c:	00800574 	movhi	r2,21
   24470:	108afb04 	addi	r2,r2,11244
   24474:	1886703a 	and	r3,r3,r2
